---
triple:          'arm64-apple-darwin'
binary-path:     '/Users/samshervinsebastian/Desktop/DAA Lab/timeComplexityAnalyzer'
relocations:
  - { offsetInCU: 0x49, offset: 0x49, size: 0x8, addend: 0x0, symName: __ZN13matplotlibcpp6detailL9s_backendE, symObjAddr: 0x6EB38, symBinAddr: 0x100014198, symSize: 0x0 }
  - { offsetInCU: 0x30D, offset: 0x30D, size: 0x8, addend: 0x0, symName: __ZN13matplotlibcpp6detail9plot_baseINSt3__16vectorIdNS2_9allocatorIdEEEES6_EEbP7_objectRKT_RKT0_RKNS2_12basic_stringIcNS2_11char_traitsIcEENS4_IcEEEERKNS2_3mapISJ_SJ_NS2_4lessISJ_EENS4_INS2_4pairISK_SJ_EEEEEE, symObjAddr: 0xBDA4, symBinAddr: 0x10000D898, symSize: 0x1C4 }
  - { offsetInCU: 0x435, offset: 0x435, size: 0x8, addend: 0x0, symName: __ZN13matplotlibcpp8colorbarEv, symObjAddr: 0x2C, symBinAddr: 0x100001B20, symSize: 0xA8 }
  - { offsetInCU: 0x45F, offset: 0x45F, size: 0x8, addend: 0x0, symName: __ZN13matplotlibcpp6figureEl, symObjAddr: 0x159C, symBinAddr: 0x100003090, symSize: 0x1E4 }
  - { offsetInCU: 0x4D7, offset: 0x4D7, size: 0x8, addend: 0x0, symName: __ZN13matplotlibcpp4plotINSt3__16vectorIdNS1_9allocatorIdEEEES5_EEbRKT_RKT0_RKNS1_12basic_stringIcNS1_11char_traitsIcEENS3_IcEEEERKNS1_3mapISG_SG_NS1_4lessISG_EENS3_INS1_4pairISH_SG_EEEEEE, symObjAddr: 0x1780, symBinAddr: 0x100003274, symSize: 0x48 }
  - { offsetInCU: 0x544, offset: 0x544, size: 0x8, addend: 0x0, symName: __ZN13matplotlibcpp5titleERKNSt3__112basic_stringIcNS0_11char_traitsIcEENS0_9allocatorIcEEEERKNS0_3mapIS6_S6_NS0_4lessIS6_EENS4_INS0_4pairIS7_S6_EEEEEE, symObjAddr: 0x1820, symBinAddr: 0x100003314, symSize: 0x178 }
  - { offsetInCU: 0x5D6, offset: 0x5D6, size: 0x8, addend: 0x0, symName: __ZN13matplotlibcpp6xlabelERKNSt3__112basic_stringIcNS0_11char_traitsIcEENS0_9allocatorIcEEEERKNS0_3mapIS6_S6_NS0_4lessIS6_EENS4_INS0_4pairIS7_S6_EEEEEE, symObjAddr: 0x1998, symBinAddr: 0x10000348C, symSize: 0x174 }
  - { offsetInCU: 0x668, offset: 0x668, size: 0x8, addend: 0x0, symName: __ZN13matplotlibcpp6ylabelERKNSt3__112basic_stringIcNS0_11char_traitsIcEENS0_9allocatorIcEEEERKNS0_3mapIS6_S6_NS0_4lessIS6_EENS4_INS0_4pairIS7_S6_EEEEEE, symObjAddr: 0x1B0C, symBinAddr: 0x100003600, symSize: 0x174 }
  - { offsetInCU: 0x6FA, offset: 0x6FA, size: 0x8, addend: 0x0, symName: __ZN13matplotlibcpp4showEb, symObjAddr: 0x1C80, symBinAddr: 0x100003774, symSize: 0x120 }
  - { offsetInCU: 0x750, offset: 0x750, size: 0x8, addend: 0x0, symName: __ZN13matplotlibcpp9get_arrayINSt3__16vectorIdNS1_9allocatorIdEEEEEEP7_objectRKT_, symObjAddr: 0xBF68, symBinAddr: 0x10000DA5C, symSize: 0x1DC }
  - { offsetInCU: 0x68D3, offset: 0x68D3, size: 0x8, addend: 0x0, symName: __ZNSt3__124__put_character_sequenceB7v160006IcNS_11char_traitsIcEEEERNS_13basic_ostreamIT_T0_EES7_PKS4_m, symObjAddr: 0x447C, symBinAddr: 0x100005F70, symSize: 0x1EC }
  - { offsetInCU: 0xCBFE, offset: 0xCBFE, size: 0x8, addend: 0x0, symName: __ZNSt3__14endlB7v160006IcNS_11char_traitsIcEEEERNS_13basic_ostreamIT_T0_EES7_, symObjAddr: 0x1410, symBinAddr: 0x100002F04, symSize: 0x58 }
  - { offsetInCU: 0xCC3E, offset: 0xCC3E, size: 0x8, addend: 0x0, symName: __ZNSt3__1lsB7v160006INS_11char_traitsIcEEEERNS_13basic_ostreamIcT_EES6_PKc, symObjAddr: 0x149C, symBinAddr: 0x100002F90, symSize: 0x48 }
  - { offsetInCU: 0xCC84, offset: 0xCC84, size: 0x8, addend: 0x0, symName: __ZNSt3__1lsB7v160006IcNS_11char_traitsIcEENS_9allocatorIcEEEERNS_13basic_ostreamIT_T0_EES9_RKNS_12basic_stringIS6_S7_T1_EE, symObjAddr: 0x14E4, symBinAddr: 0x100002FD8, symSize: 0x4C }
  - { offsetInCU: 0xCCDC, offset: 0xCCDC, size: 0x8, addend: 0x0, symName: __ZNSt3__112__to_addressB7v160006IKcEEPT_S3_, symObjAddr: 0x3560, symBinAddr: 0x100005054, symSize: 0x14 }
  - { offsetInCU: 0xCD44, offset: 0xCD44, size: 0x8, addend: 0x0, symName: __ZNSt3__1neB7v160006ERKNS_20__map_const_iteratorINS_21__tree_const_iteratorINS_12__value_typeINS_12basic_stringIcNS_11char_traitsIcEENS_9allocatorIcEEEES8_EEPNS_11__tree_nodeIS9_PvEElEEEESH_, symObjAddr: 0x36BC, symBinAddr: 0x1000051B0, symSize: 0x30 }
  - { offsetInCU: 0xCD81, offset: 0xCD81, size: 0x8, addend: 0x0, symName: __ZNSt3__1neB7v160006ERKNS_21__tree_const_iteratorINS_12__value_typeINS_12basic_stringIcNS_11char_traitsIcEENS_9allocatorIcEEEES7_EEPNS_11__tree_nodeIS8_PvEElEESF_, symObjAddr: 0x386C, symBinAddr: 0x100005360, symSize: 0x34 }
  - { offsetInCU: 0xCDBE, offset: 0xCDBE, size: 0x8, addend: 0x0, symName: __ZNSt3__1eqB7v160006ERKNS_21__tree_const_iteratorINS_12__value_typeINS_12basic_stringIcNS_11char_traitsIcEENS_9allocatorIcEEEES7_EEPNS_11__tree_nodeIS8_PvEElEESF_, symObjAddr: 0x38A0, symBinAddr: 0x100005394, symSize: 0x30 }
  - { offsetInCU: 0xCE94, offset: 0xCE94, size: 0x8, addend: 0x0, symName: __ZNSt3__116__tree_next_iterB7v160006IPNS_15__tree_end_nodeIPNS_16__tree_node_baseIPvEEEES5_EET_T0_, symObjAddr: 0x3A34, symBinAddr: 0x100005528, symSize: 0x90 }
  - { offsetInCU: 0xCED2, offset: 0xCED2, size: 0x8, addend: 0x0, symName: __ZNSt3__110__tree_minB7v160006IPNS_16__tree_node_baseIPvEEEET_S5_, symObjAddr: 0x3AC4, symBinAddr: 0x1000055B8, symSize: 0x40 }
  - { offsetInCU: 0xCF07, offset: 0xCF07, size: 0x8, addend: 0x0, symName: __ZNSt3__120__tree_is_left_childB7v160006IPNS_16__tree_node_baseIPvEEEEbT_, symObjAddr: 0x3B04, symBinAddr: 0x1000055F8, symSize: 0x2C }
  - { offsetInCU: 0xCF3C, offset: 0xCF3C, size: 0x8, addend: 0x0, symName: __ZNSt3__119__debug_db_insert_cB7v160006INS_12basic_stringIcNS_11char_traitsIcEENS_9allocatorIcEEEEEEvPT_, symObjAddr: 0x3BD8, symBinAddr: 0x1000056CC, symSize: 0x10 }
  - { offsetInCU: 0xCF6D, offset: 0xCF6D, size: 0x8, addend: 0x0, symName: __ZNSt3__119__debug_db_insert_cB7v160006INS_6vectorIdNS_9allocatorIdEEEEEEvPT_, symObjAddr: 0x3DB0, symBinAddr: 0x1000058A4, symSize: 0x10 }
  - { offsetInCU: 0xCF9E, offset: 0xCF9E, size: 0x8, addend: 0x0, symName: __ZNSt3__118__debug_db_erase_cB7v160006INS_6vectorIdNS_9allocatorIdEEEEEEvPT_, symObjAddr: 0x4074, symBinAddr: 0x100005B68, symSize: 0x10 }
  - { offsetInCU: 0xCFCF, offset: 0xCFCF, size: 0x8, addend: 0x0, symName: __ZNSt3__112__to_addressB7v160006IdEEPT_S2_, symObjAddr: 0x4190, symBinAddr: 0x100005C84, symSize: 0x14 }
  - { offsetInCU: 0xD004, offset: 0xD004, size: 0x8, addend: 0x0, symName: __ZNSt3__119__libcpp_deallocateB7v160006EPvmm, symObjAddr: 0x42B0, symBinAddr: 0x100005DA4, symSize: 0x30 }
  - { offsetInCU: 0xD04C, offset: 0xD04C, size: 0x8, addend: 0x0, symName: __ZNSt3__127__do_deallocate_handle_sizeB7v160006IJEEEvPvmDpT_, symObjAddr: 0x42E0, symBinAddr: 0x100005DD4, symSize: 0x28 }
  - { offsetInCU: 0xD08A, offset: 0xD08A, size: 0x8, addend: 0x0, symName: __ZNSt3__124__libcpp_operator_deleteB7v160006IJPvEEEvDpT_, symObjAddr: 0x4308, symBinAddr: 0x100005DFC, symSize: 0x24 }
  - { offsetInCU: 0xD0BF, offset: 0xD0BF, size: 0x8, addend: 0x0, symName: __ZNSt3__118__constexpr_strlenB7v160006EPKc, symObjAddr: 0x4458, symBinAddr: 0x100005F4C, symSize: 0x24 }
  - { offsetInCU: 0xD0EB, offset: 0xD0EB, size: 0x8, addend: 0x0, symName: __ZNSt3__116__pad_and_outputB7v160006IcNS_11char_traitsIcEEEENS_19ostreambuf_iteratorIT_T0_EES6_PKS4_S8_S8_RNS_8ios_baseES4_, symObjAddr: 0x4684, symBinAddr: 0x100006178, symSize: 0x240 }
  - { offsetInCU: 0xD1BA, offset: 0xD1BA, size: 0x8, addend: 0x0, symName: __ZNSt3__19use_facetB7v160006INS_5ctypeIcEEEERKT_RKNS_6localeE, symObjAddr: 0x4C18, symBinAddr: 0x10000670C, symSize: 0x2C }
  - { offsetInCU: 0xD716, offset: 0xD716, size: 0x8, addend: 0x0, symName: __ZNSt3__122__make_exception_guardB7v160006INS_6vectorIiNS_9allocatorIiEEE16__destroy_vectorEEENS_28__exception_guard_exceptionsIT_EES7_, symObjAddr: 0x54D8, symBinAddr: 0x100006FCC, symSize: 0x40 }
  - { offsetInCU: 0xD74B, offset: 0xD74B, size: 0x8, addend: 0x0, symName: __ZNSt3__119__debug_db_insert_cB7v160006INS_6vectorIiNS_9allocatorIiEEEEEEvPT_, symObjAddr: 0x554C, symBinAddr: 0x100007040, symSize: 0x10 }
  - { offsetInCU: 0xD77C, offset: 0xD77C, size: 0x8, addend: 0x0, symName: __ZNSt3__119__allocate_at_leastB7v160006INS_9allocatorIiEEEENS_19__allocation_resultINS_16allocator_traitsIT_E7pointerEEERS5_m, symObjAddr: 0x5880, symBinAddr: 0x100007374, symSize: 0x40 }
  - { offsetInCU: 0xD7BF, offset: 0xD7BF, size: 0x8, addend: 0x0, symName: __ZNSt3__13minB7v160006ImEERKT_S3_S3_, symObjAddr: 0x59BC, symBinAddr: 0x1000074B0, symSize: 0x2C }
  - { offsetInCU: 0xDA03, offset: 0xDA03, size: 0x8, addend: 0x0, symName: __ZNSt3__13minB7v160006ImNS_6__lessImmEEEERKT_S5_S5_T0_, symObjAddr: 0x5A20, symBinAddr: 0x100007514, symSize: 0x54 }
  - { offsetInCU: 0xDA98, offset: 0xDA98, size: 0x8, addend: 0x0, symName: __ZNSt3__120__throw_length_errorB7v160006EPKc, symObjAddr: 0x5AC4, symBinAddr: 0x1000075B8, symSize: 0x64 }
  - { offsetInCU: 0xDAC0, offset: 0xDAC0, size: 0x8, addend: 0x0, symName: __ZNSt3__117__libcpp_allocateB7v160006Emm, symObjAddr: 0x5C34, symBinAddr: 0x100007728, symSize: 0x28 }
  - { offsetInCU: 0xDAFD, offset: 0xDAFD, size: 0x8, addend: 0x0, symName: __ZNSt3__121__libcpp_operator_newB7v160006IJmEEEPvDpT_, symObjAddr: 0x5C5C, symBinAddr: 0x100007750, symSize: 0x24 }
  - { offsetInCU: 0xDB36, offset: 0xDB36, size: 0x8, addend: 0x0, symName: __ZNSt3__112__to_addressB7v160006IiEEPT_S2_, symObjAddr: 0x5D78, symBinAddr: 0x10000786C, symSize: 0x14 }
  - { offsetInCU: 0xDB6B, offset: 0xDB6B, size: 0x8, addend: 0x0, symName: __ZNSt3__130__uninitialized_allocator_copyB7v160006INS_9allocatorIiEEPiS3_S3_EET2_RT_T0_T1_S4_, symObjAddr: 0x5E28, symBinAddr: 0x10000791C, symSize: 0xF4 }
  - { offsetInCU: 0xDC09, offset: 0xDC09, size: 0x8, addend: 0x0, symName: __ZNSt3__122__make_exception_guardB7v160006INS_29_AllocatorDestroyRangeReverseINS_9allocatorIiEEPiEEEENS_28__exception_guard_exceptionsIT_EES7_, symObjAddr: 0x5F8C, symBinAddr: 0x100007A80, symSize: 0x4C }
  - { offsetInCU: 0xDC3F, offset: 0xDC3F, size: 0x8, addend: 0x0, symName: __ZNSt3__119__allocator_destroyB7v160006INS_9allocatorIiEENS_16reverse_iteratorIPiEES5_EEvRT_T0_T1_, symObjAddr: 0x6214, symBinAddr: 0x100007D08, symSize: 0x70 }
  - { offsetInCU: 0xDCA2, offset: 0xDCA2, size: 0x8, addend: 0x0, symName: __ZNSt3__1neB7v160006IPiS1_EEbRKNS_16reverse_iteratorIT_EERKNS2_IT0_EE, symObjAddr: 0x62B8, symBinAddr: 0x100007DAC, symSize: 0x48 }
  - { offsetInCU: 0xDCEE, offset: 0xDCEE, size: 0x8, addend: 0x0, symName: __ZNSt3__112__to_addressB7v160006INS_16reverse_iteratorIPiEEvEENS_5decayIDTclsr19__to_address_helperIT_EE6__callclsr3stdE7declvalIRKS5_EEEEE4typeES7_, symObjAddr: 0x632C, symBinAddr: 0x100007E20, symSize: 0x24 }
  - { offsetInCU: 0xDD4D, offset: 0xDD4D, size: 0x8, addend: 0x0, symName: __ZNSt3__118__debug_db_erase_cB7v160006INS_6vectorIiNS_9allocatorIiEEEEEEvPT_, symObjAddr: 0x660C, symBinAddr: 0x100008100, symSize: 0x10 }
  - { offsetInCU: 0xDD7E, offset: 0xDD7E, size: 0x8, addend: 0x0, symName: __ZNSt3__13maxB7v160006ImEERKT_S3_S3_, symObjAddr: 0x6D30, symBinAddr: 0x100008824, symSize: 0x2C }
  - { offsetInCU: 0xDDC1, offset: 0xDDC1, size: 0x8, addend: 0x0, symName: __ZNSt3__13maxB7v160006ImNS_6__lessImmEEEERKT_S5_S5_T0_, symObjAddr: 0x6DF4, symBinAddr: 0x1000088E8, symSize: 0x54 }
  - { offsetInCU: 0xDE1B, offset: 0xDE1B, size: 0x8, addend: 0x0, symName: __ZNSt3__119__allocate_at_leastB7v160006INS_9allocatorIdEEEENS_19__allocation_resultINS_16allocator_traitsIT_E7pointerEEERS5_m, symObjAddr: 0x6F58, symBinAddr: 0x100008A4C, symSize: 0x40 }
  - { offsetInCU: 0xDE5E, offset: 0xDE5E, size: 0x8, addend: 0x0, symName: __ZNSt3__142__uninitialized_allocator_move_if_noexceptB7v160006INS_9allocatorIdEENS_16reverse_iteratorIPdEES5_dvEET1_RT_T0_S9_S6_, symObjAddr: 0x710C, symBinAddr: 0x100008C00, symSize: 0x78 }
  - { offsetInCU: 0xDEDB, offset: 0xDEDB, size: 0x8, addend: 0x0, symName: __ZNSt3__14swapB7v160006IPdEENS_9enable_ifIXaasr21is_move_constructibleIT_EE5valuesr18is_move_assignableIS3_EE5valueEvE4typeERS3_S6_, symObjAddr: 0x71D0, symBinAddr: 0x100008CC4, symSize: 0x3C }
  - { offsetInCU: 0xDF2C, offset: 0xDF2C, size: 0x8, addend: 0x0, symName: __ZNSt3__125__debug_db_invalidate_allB7v160006INS_6vectorIdNS_9allocatorIdEEEEEEvPT_, symObjAddr: 0x72B8, symBinAddr: 0x100008DAC, symSize: 0x10 }
  - { offsetInCU: 0xDF5D, offset: 0xDF5D, size: 0x8, addend: 0x0, symName: __ZNSt3__14moveB7v160006INS_16reverse_iteratorIPdEES3_EET0_T_S5_S4_, symObjAddr: 0x72C8, symBinAddr: 0x100008DBC, symSize: 0x78 }
  - { offsetInCU: 0xDFB7, offset: 0xDFB7, size: 0x8, addend: 0x0, symName: __ZNSt3__16__moveB7v160006INS_17_ClassicAlgPolicyENS_16reverse_iteratorIPdEES4_S4_EENS_4pairIT0_T2_EES6_T1_S7_, symObjAddr: 0x7340, symBinAddr: 0x100008E34, symSize: 0x64 }
  - { offsetInCU: 0xE023, offset: 0xE023, size: 0x8, addend: 0x0, symName: __ZNSt3__123__dispatch_copy_or_moveB7v160006INS_17_ClassicAlgPolicyENS_11__move_loopIS1_EENS_14__move_trivialENS_16reverse_iteratorIPdEES7_S7_EENS_4pairIT2_T4_EES9_T3_SA_, symObjAddr: 0x73A4, symBinAddr: 0x100008E98, symSize: 0x64 }
  - { offsetInCU: 0xE0A1, offset: 0xE0A1, size: 0x8, addend: 0x0, symName: __ZNSt3__121__unwrap_and_dispatchB7v160006INS_10__overloadINS_11__move_loopINS_17_ClassicAlgPolicyEEENS_14__move_trivialEEENS_16reverse_iteratorIPdEES9_S9_Li0EEENS_4pairIT0_T2_EESB_T1_SC_, symObjAddr: 0x7408, symBinAddr: 0x100008EFC, symSize: 0x12C }
  - { offsetInCU: 0xE131, offset: 0xE131, size: 0x8, addend: 0x0, symName: __ZNSt3__114__unwrap_rangeB7v160006INS_16reverse_iteratorIPdEES3_EENS_4pairIT0_S5_EET_S7_, symObjAddr: 0x7534, symBinAddr: 0x100009028, symSize: 0x84 }
  - { offsetInCU: 0xE2EB, offset: 0xE2EB, size: 0x8, addend: 0x0, symName: __ZNSt3__113__unwrap_iterB7v160006INS_16reverse_iteratorIPdEENS_18__unwrap_iter_implIS3_Lb0EEELi0EEEDTclsrT0_8__unwrapclsr3stdE7declvalIT_EEEES7_, symObjAddr: 0x7658, symBinAddr: 0x10000914C, symSize: 0x44 }
  - { offsetInCU: 0xE32F, offset: 0xE32F, size: 0x8, addend: 0x0, symName: __ZNSt3__19make_pairB7v160006INS_16reverse_iteratorIPdEES3_EENS_4pairINS_18__unwrap_ref_decayIT_E4typeENS5_IT0_E4typeEEEOS6_OS9_, symObjAddr: 0x769C, symBinAddr: 0x100009190, symSize: 0x38 }
  - { offsetInCU: 0xE37E, offset: 0xE37E, size: 0x8, addend: 0x0, symName: __ZNSt3__114__rewrap_rangeB7v160006INS_16reverse_iteratorIPdEES3_EET_S4_T0_, symObjAddr: 0x76D4, symBinAddr: 0x1000091C8, symSize: 0x5C }
  - { offsetInCU: 0xE3CA, offset: 0xE3CA, size: 0x8, addend: 0x0, symName: __ZNSt3__113__rewrap_iterB7v160006INS_16reverse_iteratorIPdEES3_NS_18__unwrap_iter_implIS3_Lb0EEEEET_S6_T0_, symObjAddr: 0x7730, symBinAddr: 0x100009224, symSize: 0x74 }
  - { offsetInCU: 0xE41F, offset: 0xE41F, size: 0x8, addend: 0x0, symName: __ZNSt3__1neB7v160006IPdS1_EEbRKNS_16reverse_iteratorIT_EERKNS2_IT0_EE, symObjAddr: 0x77A4, symBinAddr: 0x100009298, symSize: 0x48 }
  - { offsetInCU: 0xE550, offset: 0xE550, size: 0x8, addend: 0x0, symName: __ZNSt3__122__make_exception_guardB7v160006INS_6vectorIdNS_9allocatorIdEEE16__destroy_vectorEEENS_28__exception_guard_exceptionsIT_EES7_, symObjAddr: 0x7C5C, symBinAddr: 0x100009750, symSize: 0x40 }
  - { offsetInCU: 0xE585, offset: 0xE585, size: 0x8, addend: 0x0, symName: __ZNSt3__130__uninitialized_allocator_copyB7v160006INS_9allocatorIdEEddLPv0EEEPT0_RT_PKS4_S9_S5_, symObjAddr: 0x7EC4, symBinAddr: 0x1000099B8, symSize: 0x38 }
  - { offsetInCU: 0xE5FD, offset: 0xE5FD, size: 0x8, addend: 0x0, symName: __ZNSt3__14copyB7v160006IPKdPdEET0_T_S5_S4_, symObjAddr: 0x7EFC, symBinAddr: 0x1000099F0, symSize: 0x40 }
  - { offsetInCU: 0xE657, offset: 0xE657, size: 0x8, addend: 0x0, symName: __ZNSt3__16__copyB7v160006INS_17_ClassicAlgPolicyEPKdS3_PdEENS_4pairIT0_T2_EES6_T1_S7_, symObjAddr: 0x7F3C, symBinAddr: 0x100009A30, symSize: 0x44 }
  - { offsetInCU: 0xE6C3, offset: 0xE6C3, size: 0x8, addend: 0x0, symName: __ZNSt3__123__dispatch_copy_or_moveB7v160006INS_17_ClassicAlgPolicyENS_11__copy_loopIS1_EENS_14__copy_trivialEPKdS6_PdEENS_4pairIT2_T4_EES9_T3_SA_, symObjAddr: 0x7F80, symBinAddr: 0x100009A74, symSize: 0x44 }
  - { offsetInCU: 0xE741, offset: 0xE741, size: 0x8, addend: 0x0, symName: __ZNSt3__121__unwrap_and_dispatchB7v160006INS_10__overloadINS_11__copy_loopINS_17_ClassicAlgPolicyEEENS_14__copy_trivialEEEPKdS8_PdLi0EEENS_4pairIT0_T2_EESB_T1_SC_, symObjAddr: 0x7FC4, symBinAddr: 0x100009AB8, symSize: 0xB4 }
  - { offsetInCU: 0xE7CF, offset: 0xE7CF, size: 0x8, addend: 0x0, symName: __ZNSt3__114__unwrap_rangeB7v160006IPKdS2_EENS_4pairIT0_S4_EET_S6_, symObjAddr: 0x8078, symBinAddr: 0x100009B6C, symSize: 0x60 }
  - { offsetInCU: 0xE964, offset: 0xE964, size: 0x8, addend: 0x0, symName: __ZNSt3__113__unwrap_iterB7v160006IPdNS_18__unwrap_iter_implIS1_Lb1EEELi0EEEDTclsrT0_8__unwrapclsr3stdE7declvalIT_EEEES5_, symObjAddr: 0x8120, symBinAddr: 0x100009C14, symSize: 0x24 }
  - { offsetInCU: 0xE9A8, offset: 0xE9A8, size: 0x8, addend: 0x0, symName: __ZNSt3__19make_pairB7v160006IPKdPdEENS_4pairINS_18__unwrap_ref_decayIT_E4typeENS5_IT0_E4typeEEEOS6_OS9_, symObjAddr: 0x8144, symBinAddr: 0x100009C38, symSize: 0x38 }
  - { offsetInCU: 0xE9F7, offset: 0xE9F7, size: 0x8, addend: 0x0, symName: __ZNSt3__114__rewrap_rangeB7v160006IPKdS2_EET_S3_T0_, symObjAddr: 0x817C, symBinAddr: 0x100009C70, symSize: 0x2C }
  - { offsetInCU: 0xEA43, offset: 0xEA43, size: 0x8, addend: 0x0, symName: __ZNSt3__113__rewrap_iterB7v160006IPdS1_NS_18__unwrap_iter_implIS1_Lb1EEEEET_S4_T0_, symObjAddr: 0x81A8, symBinAddr: 0x100009C9C, symSize: 0x3C }
  - { offsetInCU: 0xEA98, offset: 0xEA98, size: 0x8, addend: 0x0, symName: __ZNSt3__19make_pairB7v160006IPKdS2_EENS_4pairINS_18__unwrap_ref_decayIT_E4typeENS4_IT0_E4typeEEEOS5_OS8_, symObjAddr: 0x81E4, symBinAddr: 0x100009CD8, symSize: 0x38 }
  - { offsetInCU: 0xEAE7, offset: 0xEAE7, size: 0x8, addend: 0x0, symName: __ZNSt3__113__unwrap_iterB7v160006IPKdNS_18__unwrap_iter_implIS2_Lb1EEELi0EEEDTclsrT0_8__unwrapclsr3stdE7declvalIT_EEEES6_, symObjAddr: 0x821C, symBinAddr: 0x100009D10, symSize: 0x24 }
  - { offsetInCU: 0xEC52, offset: 0xEC52, size: 0x8, addend: 0x0, symName: __ZNSt3__112__to_addressB7v160006IKdEEPT_S3_, symObjAddr: 0x82D4, symBinAddr: 0x100009DC8, symSize: 0x14 }
  - { offsetInCU: 0xEC87, offset: 0xEC87, size: 0x8, addend: 0x0, symName: __ZNSt3__119__copy_trivial_implB7v160006IKddEENS_4pairIPT_PT0_EES4_S4_S6_, symObjAddr: 0x82E8, symBinAddr: 0x100009DDC, symSize: 0x84 }
  - { offsetInCU: 0xECEF, offset: 0xECEF, size: 0x8, addend: 0x0, symName: __ZNSt3__19make_pairB7v160006IRPKdPdEENS_4pairINS_18__unwrap_ref_decayIT_E4typeENS6_IT0_E4typeEEEOS7_OSA_, symObjAddr: 0x836C, symBinAddr: 0x100009E60, symSize: 0x38 }
  - { offsetInCU: 0xED91, offset: 0xED91, size: 0x8, addend: 0x0, symName: __ZNSt3__113__rewrap_iterB7v160006IPKdS2_NS_18__unwrap_iter_implIS2_Lb1EEEEET_S5_T0_, symObjAddr: 0x84A8, symBinAddr: 0x100009F9C, symSize: 0x3C }
  - { offsetInCU: 0xEDE6, offset: 0xEDE6, size: 0x8, addend: 0x0, symName: __ZNSt3__119__debug_db_insert_cB7v160006INS_6vectorINS1_IiNS_9allocatorIiEEEENS2_IS4_EEEEEEvPT_, symObjAddr: 0x8668, symBinAddr: 0x10000A15C, symSize: 0x10 }
  - { offsetInCU: 0xEE17, offset: 0xEE17, size: 0x8, addend: 0x0, symName: __ZNSt3__118__debug_db_erase_cB7v160006INS_6vectorINS1_IiNS_9allocatorIiEEEENS2_IS4_EEEEEEvPT_, symObjAddr: 0x8948, symBinAddr: 0x10000A43C, symSize: 0x10 }
  - { offsetInCU: 0xEE48, offset: 0xEE48, size: 0x8, addend: 0x0, symName: __ZNSt3__112__to_addressB7v160006INS_6vectorIiNS_9allocatorIiEEEEEEPT_S6_, symObjAddr: 0x8A64, symBinAddr: 0x10000A558, symSize: 0x14 }
  - { offsetInCU: 0xEE7D, offset: 0xEE7D, size: 0x8, addend: 0x0, symName: __ZNSt3__125__debug_db_invalidate_allB7v160006INS_6vectorIiNS_9allocatorIiEEEEEEvPT_, symObjAddr: 0x8E24, symBinAddr: 0x10000A918, symSize: 0x10 }
  - { offsetInCU: 0xEEAE, offset: 0xEEAE, size: 0x8, addend: 0x0, symName: __ZNSt3__142__uninitialized_allocator_move_if_noexceptB7v160006INS_9allocatorIiEENS_16reverse_iteratorIPiEES5_ivEET1_RT_T0_S9_S6_, symObjAddr: 0x9460, symBinAddr: 0x10000AF54, symSize: 0x78 }
  - { offsetInCU: 0xEF2B, offset: 0xEF2B, size: 0x8, addend: 0x0, symName: __ZNSt3__14swapB7v160006IPiEENS_9enable_ifIXaasr21is_move_constructibleIT_EE5valuesr18is_move_assignableIS3_EE5valueEvE4typeERS3_S6_, symObjAddr: 0x94D8, symBinAddr: 0x10000AFCC, symSize: 0x3C }
  - { offsetInCU: 0xEF7C, offset: 0xEF7C, size: 0x8, addend: 0x0, symName: __ZNSt3__14moveB7v160006INS_16reverse_iteratorIPiEES3_EET0_T_S5_S4_, symObjAddr: 0x9514, symBinAddr: 0x10000B008, symSize: 0x78 }
  - { offsetInCU: 0xEFD6, offset: 0xEFD6, size: 0x8, addend: 0x0, symName: __ZNSt3__16__moveB7v160006INS_17_ClassicAlgPolicyENS_16reverse_iteratorIPiEES4_S4_EENS_4pairIT0_T2_EES6_T1_S7_, symObjAddr: 0x958C, symBinAddr: 0x10000B080, symSize: 0x64 }
  - { offsetInCU: 0xF042, offset: 0xF042, size: 0x8, addend: 0x0, symName: __ZNSt3__123__dispatch_copy_or_moveB7v160006INS_17_ClassicAlgPolicyENS_11__move_loopIS1_EENS_14__move_trivialENS_16reverse_iteratorIPiEES7_S7_EENS_4pairIT2_T4_EES9_T3_SA_, symObjAddr: 0x95F0, symBinAddr: 0x10000B0E4, symSize: 0x64 }
  - { offsetInCU: 0xF0C0, offset: 0xF0C0, size: 0x8, addend: 0x0, symName: __ZNSt3__121__unwrap_and_dispatchB7v160006INS_10__overloadINS_11__move_loopINS_17_ClassicAlgPolicyEEENS_14__move_trivialEEENS_16reverse_iteratorIPiEES9_S9_Li0EEENS_4pairIT0_T2_EESB_T1_SC_, symObjAddr: 0x9654, symBinAddr: 0x10000B148, symSize: 0x12C }
  - { offsetInCU: 0xF150, offset: 0xF150, size: 0x8, addend: 0x0, symName: __ZNSt3__114__unwrap_rangeB7v160006INS_16reverse_iteratorIPiEES3_EENS_4pairIT0_S5_EET_S7_, symObjAddr: 0x9780, symBinAddr: 0x10000B274, symSize: 0x84 }
  - { offsetInCU: 0xF270, offset: 0xF270, size: 0x8, addend: 0x0, symName: __ZNSt3__113__unwrap_iterB7v160006INS_16reverse_iteratorIPiEENS_18__unwrap_iter_implIS3_Lb0EEELi0EEEDTclsrT0_8__unwrapclsr3stdE7declvalIT_EEEES7_, symObjAddr: 0x98A4, symBinAddr: 0x10000B398, symSize: 0x44 }
  - { offsetInCU: 0xF2B4, offset: 0xF2B4, size: 0x8, addend: 0x0, symName: __ZNSt3__19make_pairB7v160006INS_16reverse_iteratorIPiEES3_EENS_4pairINS_18__unwrap_ref_decayIT_E4typeENS5_IT0_E4typeEEEOS6_OS9_, symObjAddr: 0x98E8, symBinAddr: 0x10000B3DC, symSize: 0x38 }
  - { offsetInCU: 0xF303, offset: 0xF303, size: 0x8, addend: 0x0, symName: __ZNSt3__114__rewrap_rangeB7v160006INS_16reverse_iteratorIPiEES3_EET_S4_T0_, symObjAddr: 0x9920, symBinAddr: 0x10000B414, symSize: 0x5C }
  - { offsetInCU: 0xF34F, offset: 0xF34F, size: 0x8, addend: 0x0, symName: __ZNSt3__113__rewrap_iterB7v160006INS_16reverse_iteratorIPiEES3_NS_18__unwrap_iter_implIS3_Lb0EEEEET_S6_T0_, symObjAddr: 0x997C, symBinAddr: 0x10000B470, symSize: 0x74 }
  - { offsetInCU: 0xF410, offset: 0xF410, size: 0x8, addend: 0x0, symName: __ZNSt3__119__allocate_at_leastB7v160006INS_9allocatorINS_6vectorIiNS1_IiEEEEEEEENS_19__allocation_resultINS_16allocator_traitsIT_E7pointerEEERS8_m, symObjAddr: 0xA5FC, symBinAddr: 0x10000C0F0, symSize: 0x40 }
  - { offsetInCU: 0xF453, offset: 0xF453, size: 0x8, addend: 0x0, symName: __ZNSt3__142__uninitialized_allocator_move_if_noexceptB7v160006INS_9allocatorINS_6vectorIiNS1_IiEEEEEENS_16reverse_iteratorIPS4_EES8_S8_EET2_RT_T0_T1_S9_, symObjAddr: 0xA7B4, symBinAddr: 0x10000C2A8, symSize: 0x12C }
  - { offsetInCU: 0xF4F3, offset: 0xF4F3, size: 0x8, addend: 0x0, symName: __ZNSt3__14swapB7v160006IPNS_6vectorIiNS_9allocatorIiEEEEEENS_9enable_ifIXaasr21is_move_constructibleIT_EE5valuesr18is_move_assignableIS7_EE5valueEvE4typeERS7_SA_, symObjAddr: 0xA92C, symBinAddr: 0x10000C420, symSize: 0x3C }
  - { offsetInCU: 0xF544, offset: 0xF544, size: 0x8, addend: 0x0, symName: __ZNSt3__125__debug_db_invalidate_allB7v160006INS_6vectorINS1_IiNS_9allocatorIiEEEENS2_IS4_EEEEEEvPT_, symObjAddr: 0xAA30, symBinAddr: 0x10000C524, symSize: 0x10 }
  - { offsetInCU: 0xF575, offset: 0xF575, size: 0x8, addend: 0x0, symName: __ZNSt3__122__make_exception_guardB7v160006INS_29_AllocatorDestroyRangeReverseINS_9allocatorINS_6vectorIiNS2_IiEEEEEENS_16reverse_iteratorIPS5_EEEEEENS_28__exception_guard_exceptionsIT_EESC_, symObjAddr: 0xAA40, symBinAddr: 0x10000C534, symSize: 0x4C }
  - { offsetInCU: 0xF5AB, offset: 0xF5AB, size: 0x8, addend: 0x0, symName: __ZNSt3__1neB7v160006IPNS_6vectorIiNS_9allocatorIiEEEES5_EEbRKNS_16reverse_iteratorIT_EERKNS6_IT0_EE, symObjAddr: 0xAAD0, symBinAddr: 0x10000C5C4, symSize: 0x48 }
  - { offsetInCU: 0xF5F7, offset: 0xF5F7, size: 0x8, addend: 0x0, symName: __ZNSt3__112__to_addressB7v160006INS_16reverse_iteratorIPNS_6vectorIiNS_9allocatorIiEEEEEEvEENS_5decayIDTclsr19__to_address_helperIT_EE6__callclsr3stdE7declvalIRKS9_EEEEE4typeESB_, symObjAddr: 0xAB4C, symBinAddr: 0x10000C640, symSize: 0x24 }
  - { offsetInCU: 0xF62D, offset: 0xF62D, size: 0x8, addend: 0x0, symName: __ZNSt3__115__debug_db_swapB7v160006INS_6vectorIiNS_9allocatorIiEEEEEEvPT_S6_, symObjAddr: 0xADDC, symBinAddr: 0x10000C8D0, symSize: 0x14 }
  - { offsetInCU: 0xF695, offset: 0xF695, size: 0x8, addend: 0x0, symName: __ZNSt3__119__allocator_destroyB7v160006INS_9allocatorINS_6vectorIiNS1_IiEEEEEENS_16reverse_iteratorINS6_IPS4_EEEES9_EEvRT_T0_T1_, symObjAddr: 0xAF50, symBinAddr: 0x10000CA44, symSize: 0x70 }
  - { offsetInCU: 0xF6FA, offset: 0xF6FA, size: 0x8, addend: 0x0, symName: __ZNSt3__1neB7v160006INS_16reverse_iteratorIPNS_6vectorIiNS_9allocatorIiEEEEEES7_EEbRKNS1_IT_EERKNS1_IT0_EE, symObjAddr: 0xAFFC, symBinAddr: 0x10000CAF0, symSize: 0x60 }
  - { offsetInCU: 0xF746, offset: 0xF746, size: 0x8, addend: 0x0, symName: __ZNSt3__112__to_addressB7v160006INS_16reverse_iteratorINS1_IPNS_6vectorIiNS_9allocatorIiEEEEEEEEvEENS_5decayIDTclsr19__to_address_helperIT_EE6__callclsr3stdE7declvalIRKSA_EEEEE4typeESC_, symObjAddr: 0xB05C, symBinAddr: 0x10000CB50, symSize: 0x24 }
  - { offsetInCU: 0xF7A5, offset: 0xF7A5, size: 0x8, addend: 0x0, symName: __ZNSt3__122__make_exception_guardB7v160006INS_6vectorINS1_IiNS_9allocatorIiEEEENS2_IS4_EEE16__destroy_vectorEEENS_28__exception_guard_exceptionsIT_EES9_, symObjAddr: 0xB520, symBinAddr: 0x10000D014, symSize: 0x40 }
  - { offsetInCU: 0xF7DA, offset: 0xF7DA, size: 0x8, addend: 0x0, symName: __ZNSt3__130__uninitialized_allocator_copyB7v160006INS_9allocatorINS_6vectorIiNS1_IiEEEEEEPS4_S6_S6_EET2_RT_T0_T1_S7_, symObjAddr: 0xB79C, symBinAddr: 0x10000D290, symSize: 0xF4 }
  - { offsetInCU: 0xF878, offset: 0xF878, size: 0x8, addend: 0x0, symName: __ZNSt3__122__make_exception_guardB7v160006INS_29_AllocatorDestroyRangeReverseINS_9allocatorINS_6vectorIiNS2_IiEEEEEEPS5_EEEENS_28__exception_guard_exceptionsIT_EESA_, symObjAddr: 0xB890, symBinAddr: 0x10000D384, symSize: 0x4C }
  - { offsetInCU: 0xF8AE, offset: 0xF8AE, size: 0x8, addend: 0x0, symName: __ZNSt3__119__allocator_destroyB7v160006INS_9allocatorINS_6vectorIiNS1_IiEEEEEENS_16reverse_iteratorIPS4_EES8_EEvRT_T0_T1_, symObjAddr: 0xBB20, symBinAddr: 0x10000D614, symSize: 0x70 }
  - { offsetInCU: 0xF911, offset: 0xF911, size: 0x8, addend: 0x0, symName: __ZNSt3__14copyB7v160006IPKdNS_11__wrap_iterIPdEEEET0_T_S7_S6_, symObjAddr: 0xC1A0, symBinAddr: 0x10000DC94, symSize: 0x50 }
  - { offsetInCU: 0xF96B, offset: 0xF96B, size: 0x8, addend: 0x0, symName: __ZNSt3__16__copyB7v160006INS_17_ClassicAlgPolicyEPKdS3_NS_11__wrap_iterIPdEEEENS_4pairIT0_T2_EES8_T1_S9_, symObjAddr: 0xC438, symBinAddr: 0x10000DF2C, symSize: 0x4C }
  - { offsetInCU: 0xF9D7, offset: 0xF9D7, size: 0x8, addend: 0x0, symName: __ZNSt3__123__dispatch_copy_or_moveB7v160006INS_17_ClassicAlgPolicyENS_11__copy_loopIS1_EENS_14__copy_trivialEPKdS6_NS_11__wrap_iterIPdEEEENS_4pairIT2_T4_EESB_T3_SC_, symObjAddr: 0xC484, symBinAddr: 0x10000DF78, symSize: 0x4C }
  - { offsetInCU: 0xFA55, offset: 0xFA55, size: 0x8, addend: 0x0, symName: __ZNSt3__121__unwrap_and_dispatchB7v160006INS_10__overloadINS_11__copy_loopINS_17_ClassicAlgPolicyEEENS_14__copy_trivialEEEPKdS8_NS_11__wrap_iterIPdEELi0EEENS_4pairIT0_T2_EESD_T1_SE_, symObjAddr: 0xC4D0, symBinAddr: 0x10000DFC4, symSize: 0xC4 }
  - { offsetInCU: 0xFAE4, offset: 0xFAE4, size: 0x8, addend: 0x0, symName: __ZNSt3__113__unwrap_iterB7v160006INS_11__wrap_iterIPdEENS_18__unwrap_iter_implIS3_Lb1EEELi0EEEDTclsrT0_8__unwrapclsr3stdE7declvalIT_EEEES7_, symObjAddr: 0xC594, symBinAddr: 0x10000E088, symSize: 0x2C }
  - { offsetInCU: 0xFB28, offset: 0xFB28, size: 0x8, addend: 0x0, symName: __ZNSt3__19make_pairB7v160006IPKdNS_11__wrap_iterIPdEEEENS_4pairINS_18__unwrap_ref_decayIT_E4typeENS7_IT0_E4typeEEEOS8_OSB_, symObjAddr: 0xC5C0, symBinAddr: 0x10000E0B4, symSize: 0x38 }
  - { offsetInCU: 0xFB77, offset: 0xFB77, size: 0x8, addend: 0x0, symName: __ZNSt3__113__rewrap_iterB7v160006INS_11__wrap_iterIPdEES2_NS_18__unwrap_iter_implIS3_Lb1EEEEET_S6_T0_, symObjAddr: 0xC5F8, symBinAddr: 0x10000E0EC, symSize: 0x4C }
  - { offsetInCU: 0xFC1F, offset: 0xFC1F, size: 0x8, addend: 0x0, symName: __ZNSt3__112__to_addressB7v160006INS_11__wrap_iterIPdEEvEENS_5decayIDTclsr19__to_address_helperIT_EE6__callclsr3stdE7declvalIRKS5_EEEEE4typeES7_, symObjAddr: 0xC66C, symBinAddr: 0x10000E160, symSize: 0x24 }
  - { offsetInCU: 0x102C4, offset: 0x102C4, size: 0x8, addend: 0x0, symName: __ZSt28__throw_bad_array_new_lengthB7v160006v, symObjAddr: 0x5C00, symBinAddr: 0x1000076F4, symSize: 0x34 }
  - { offsetInCU: 0x10FD8, offset: 0x10FD8, size: 0x8, addend: 0x0, symName: __ZN13matplotlibcpp6detail12_interpreter3getEv, symObjAddr: 0xD4, symBinAddr: 0x100001BC8, symSize: 0xB8 }
  - { offsetInCU: 0x10FF7, offset: 0x10FF7, size: 0x8, addend: 0x0, symName: __ZZN13matplotlibcpp6detail12_interpreter3getEvE3ctx, symObjAddr: 0xD6B0, symBinAddr: 0x100014000, symSize: 0x0 }
  - { offsetInCU: 0x1100F, offset: 0x1100F, size: 0x8, addend: 0x0, symName: __ZL11PyArray_API, symObjAddr: 0x6EB50, symBinAddr: 0x1000141B0, symSize: 0x0 }
  - { offsetInCU: 0x11B73, offset: 0x11B73, size: 0x8, addend: 0x0, symName: __ZNSt3__16vectorIdNS_9allocatorIdEEE26__swap_out_circular_bufferERNS_14__split_bufferIdRS2_EE, symObjAddr: 0x6B70, symBinAddr: 0x100008664, symSize: 0x118 }
  - { offsetInCU: 0x11BE8, offset: 0x11BE8, size: 0x8, addend: 0x0, symName: __ZNSt3__16vectorIiNS_9allocatorIiEEE26__swap_out_circular_bufferERNS_14__split_bufferIiRS2_EE, symObjAddr: 0x90F0, symBinAddr: 0x10000ABE4, symSize: 0x118 }
  - { offsetInCU: 0x11C2B, offset: 0x11C2B, size: 0x8, addend: 0x0, symName: __ZNSt3__16vectorINS0_IiNS_9allocatorIiEEEENS1_IS3_EEE26__swap_out_circular_bufferERNS_14__split_bufferIS3_RS4_EE, symObjAddr: 0xA284, symBinAddr: 0x10000BD78, symSize: 0x118 }
  - { offsetInCU: 0x13EED, offset: 0x13EED, size: 0x8, addend: 0x0, symName: __ZNSt3__112basic_stringIcNS_11char_traitsIcEENS_9allocatorIcEEEC1B7v160006Ev, symObjAddr: 0x0, symBinAddr: 0x100001AF4, symSize: 0x2C }
  - { offsetInCU: 0x13F17, offset: 0x13F17, size: 0x8, addend: 0x0, symName: __Z13insertionSortNSt3__16vectorIiNS_9allocatorIiEEEE, symObjAddr: 0x18C, symBinAddr: 0x100001C80, symSize: 0x148 }
  - { offsetInCU: 0x13F79, offset: 0x13F79, size: 0x8, addend: 0x0, symName: __ZNKSt3__16vectorIiNS_9allocatorIiEEE4sizeB7v160006Ev, symObjAddr: 0x2D4, symBinAddr: 0x100001DC8, symSize: 0x28 }
  - { offsetInCU: 0x13F9F, offset: 0x13F9F, size: 0x8, addend: 0x0, symName: __ZNSt3__16vectorIiNS_9allocatorIiEEEixB7v160006Em, symObjAddr: 0x2FC, symBinAddr: 0x100001DF0, symSize: 0x24 }
  - { offsetInCU: 0x13FD5, offset: 0x13FD5, size: 0x8, addend: 0x0, symName: __Z22timeComplexityAnalyzerNSt3__16vectorINS0_IiNS_9allocatorIiEEEENS1_IS3_EEEE, symObjAddr: 0x320, symBinAddr: 0x100001E14, symSize: 0x158 }
  - { offsetInCU: 0x14042, offset: 0x14042, size: 0x8, addend: 0x0, symName: __ZNSt3__16vectorIdNS_9allocatorIdEEEC1B7v160006Ev, symObjAddr: 0x478, symBinAddr: 0x100001F6C, symSize: 0x2C }
  - { offsetInCU: 0x1406C, offset: 0x1406C, size: 0x8, addend: 0x0, symName: __ZNKSt3__16vectorINS0_IiNS_9allocatorIiEEEENS1_IS3_EEE4sizeB7v160006Ev, symObjAddr: 0x4A4, symBinAddr: 0x100001F98, symSize: 0x28 }
  - { offsetInCU: 0x14092, offset: 0x14092, size: 0x8, addend: 0x0, symName: __ZNSt3__16vectorINS0_IiNS_9allocatorIiEEEENS1_IS3_EEEixB7v160006Em, symObjAddr: 0x4CC, symBinAddr: 0x100001FC0, symSize: 0x2C }
  - { offsetInCU: 0x140C9, offset: 0x140C9, size: 0x8, addend: 0x0, symName: __ZNSt3__16vectorIiNS_9allocatorIiEEEC1ERKS3_, symObjAddr: 0x4F8, symBinAddr: 0x100001FEC, symSize: 0x34 }
  - { offsetInCU: 0x14104, offset: 0x14104, size: 0x8, addend: 0x0, symName: __ZNSt3__16vectorIiNS_9allocatorIiEEED1B7v160006Ev, symObjAddr: 0x52C, symBinAddr: 0x100002020, symSize: 0x2C }
  - { offsetInCU: 0x1412E, offset: 0x1412E, size: 0x8, addend: 0x0, symName: __ZNSt3__16vectorIdNS_9allocatorIdEEE9push_backB7v160006EOd, symObjAddr: 0x558, symBinAddr: 0x10000204C, symSize: 0x6C }
  - { offsetInCU: 0x14165, offset: 0x14165, size: 0x8, addend: 0x0, symName: __ZNSt3__16vectorIdNS_9allocatorIdEEED1B7v160006Ev, symObjAddr: 0x5C4, symBinAddr: 0x1000020B8, symSize: 0x2C }
  - { offsetInCU: 0x1418F, offset: 0x1418F, size: 0x8, addend: 0x0, symName: _main, symObjAddr: 0x5F0, symBinAddr: 0x1000020E4, symSize: 0xB1C }
  - { offsetInCU: 0x142B2, offset: 0x142B2, size: 0x8, addend: 0x0, symName: __ZNSt3__16vectorIdNS_9allocatorIdEEEC1B7v160006ESt16initializer_listIdE, symObjAddr: 0x110C, symBinAddr: 0x100002C00, symSize: 0x3C }
  - { offsetInCU: 0x142ED, offset: 0x142ED, size: 0x8, addend: 0x0, symName: __ZNSt3__16vectorINS0_IiNS_9allocatorIiEEEENS1_IS3_EEEC1B7v160006Ev, symObjAddr: 0x1148, symBinAddr: 0x100002C3C, symSize: 0x2C }
  - { offsetInCU: 0x14317, offset: 0x14317, size: 0x8, addend: 0x0, symName: __ZNSt3__16vectorIiNS_9allocatorIiEEEC1B7v160006Ev, symObjAddr: 0x1174, symBinAddr: 0x100002C68, symSize: 0x2C }
  - { offsetInCU: 0x14341, offset: 0x14341, size: 0x8, addend: 0x0, symName: __ZNKSt3__16vectorIdNS_9allocatorIdEEE4sizeB7v160006Ev, symObjAddr: 0x11A0, symBinAddr: 0x100002C94, symSize: 0x28 }
  - { offsetInCU: 0x14367, offset: 0x14367, size: 0x8, addend: 0x0, symName: __ZNSt3__16vectorIiNS_9allocatorIiEEE5clearB7v160006Ev, symObjAddr: 0x11C8, symBinAddr: 0x100002CBC, symSize: 0x54 }
  - { offsetInCU: 0x1439C, offset: 0x1439C, size: 0x8, addend: 0x0, symName: __ZNSt3__16vectorIdNS_9allocatorIdEEEixB7v160006Em, symObjAddr: 0x121C, symBinAddr: 0x100002D10, symSize: 0x24 }
  - { offsetInCU: 0x143D3, offset: 0x143D3, size: 0x8, addend: 0x0, symName: __ZNSt3__16vectorIiNS_9allocatorIiEEE9push_backB7v160006ERKi, symObjAddr: 0x1240, symBinAddr: 0x100002D34, symSize: 0x6C }
  - { offsetInCU: 0x1440A, offset: 0x1440A, size: 0x8, addend: 0x0, symName: __ZNSt3__16vectorIiNS_9allocatorIiEEE9push_backB7v160006EOi, symObjAddr: 0x12AC, symBinAddr: 0x100002DA0, symSize: 0x6C }
  - { offsetInCU: 0x14441, offset: 0x14441, size: 0x8, addend: 0x0, symName: __ZNSt3__16vectorINS0_IiNS_9allocatorIiEEEENS1_IS3_EEE9push_backB7v160006ERKS3_, symObjAddr: 0x1318, symBinAddr: 0x100002E0C, symSize: 0x6C }
  - { offsetInCU: 0x14478, offset: 0x14478, size: 0x8, addend: 0x0, symName: __ZNSt3__16vectorINS0_IiNS_9allocatorIiEEEENS1_IS3_EEEC1ERKS5_, symObjAddr: 0x1384, symBinAddr: 0x100002E78, symSize: 0x34 }
  - { offsetInCU: 0x144B3, offset: 0x144B3, size: 0x8, addend: 0x0, symName: __ZNSt3__16vectorINS0_IiNS_9allocatorIiEEEENS1_IS3_EEED1B7v160006Ev, symObjAddr: 0x13B8, symBinAddr: 0x100002EAC, symSize: 0x2C }
  - { offsetInCU: 0x144DD, offset: 0x144DD, size: 0x8, addend: 0x0, symName: __ZNSt3__113basic_ostreamIcNS_11char_traitsIcEEElsB7v160006EPFRS3_S4_E, symObjAddr: 0x13E4, symBinAddr: 0x100002ED8, symSize: 0x2C }
  - { offsetInCU: 0x14516, offset: 0x14516, size: 0x8, addend: 0x0, symName: __ZNSt3__112basic_stringIcNS_11char_traitsIcEENS_9allocatorIcEEEC1B7v160006IDnEEPKc, symObjAddr: 0x1468, symBinAddr: 0x100002F5C, symSize: 0x34 }
  - { offsetInCU: 0x14554, offset: 0x14554, size: 0x8, addend: 0x0, symName: __ZNSt3__16vectorIdNS_9allocatorIdEEE9push_backB7v160006ERKd, symObjAddr: 0x1530, symBinAddr: 0x100003024, symSize: 0x6C }
  - { offsetInCU: 0x1458B, offset: 0x1458B, size: 0x8, addend: 0x0, symName: __ZNSt3__13mapINS_12basic_stringIcNS_11char_traitsIcEENS_9allocatorIcEEEES6_NS_4lessIS6_EENS4_INS_4pairIKS6_S6_EEEEEC1B7v160006Ev, symObjAddr: 0x17C8, symBinAddr: 0x1000032BC, symSize: 0x2C }
  - { offsetInCU: 0x145B5, offset: 0x145B5, size: 0x8, addend: 0x0, symName: __ZNSt3__13mapINS_12basic_stringIcNS_11char_traitsIcEENS_9allocatorIcEEEES6_NS_4lessIS6_EENS4_INS_4pairIKS6_S6_EEEEED1B7v160006Ev, symObjAddr: 0x17F4, symBinAddr: 0x1000032E8, symSize: 0x2C }
  - { offsetInCU: 0x145DF, offset: 0x145DF, size: 0x8, addend: 0x0, symName: __ZN13matplotlibcpp6detail12_interpreterC1Ev, symObjAddr: 0x1DA0, symBinAddr: 0x100003894, symSize: 0x2C }
  - { offsetInCU: 0x14609, offset: 0x14609, size: 0x8, addend: 0x0, symName: __ZN13matplotlibcpp6detail12_interpreterD1Ev, symObjAddr: 0x1DCC, symBinAddr: 0x1000038C0, symSize: 0x2C }
  - { offsetInCU: 0x14633, offset: 0x14633, size: 0x8, addend: 0x0, symName: __ZN13matplotlibcpp6detail12_interpreterC2Ev, symObjAddr: 0x1DF8, symBinAddr: 0x1000038EC, symSize: 0x1240 }
  - { offsetInCU: 0x146DB, offset: 0x146DB, size: 0x8, addend: 0x0, symName: __ZN13matplotlibcpp6detail12_interpreter12import_numpyEv, symObjAddr: 0x3038, symBinAddr: 0x100004B2C, symSize: 0x60 }
  - { offsetInCU: 0x14701, offset: 0x14701, size: 0x8, addend: 0x0, symName: __ZL9Py_DECREFP7_object, symObjAddr: 0x3098, symBinAddr: 0x100004B8C, symSize: 0x48 }
  - { offsetInCU: 0x1472C, offset: 0x1472C, size: 0x8, addend: 0x0, symName: __ZNKSt3__112basic_stringIcNS_11char_traitsIcEENS_9allocatorIcEEE5emptyB7v160006Ev, symObjAddr: 0x30E0, symBinAddr: 0x100004BD4, symSize: 0x30 }
  - { offsetInCU: 0x14752, offset: 0x14752, size: 0x8, addend: 0x0, symName: __ZNKSt3__112basic_stringIcNS_11char_traitsIcEENS_9allocatorIcEEE5c_strB7v160006Ev, symObjAddr: 0x3110, symBinAddr: 0x100004C04, symSize: 0x24 }
  - { offsetInCU: 0x14778, offset: 0x14778, size: 0x8, addend: 0x0, symName: __ZL10Py_IS_TYPEP7_objectP11_typeobject, symObjAddr: 0x3134, symBinAddr: 0x100004C28, symSize: 0x38 }
  - { offsetInCU: 0x147B3, offset: 0x147B3, size: 0x8, addend: 0x0, symName: __ZL13_import_arrayv, symObjAddr: 0x316C, symBinAddr: 0x100004C60, symSize: 0x2AC }
  - { offsetInCU: 0x14800, offset: 0x14800, size: 0x8, addend: 0x0, symName: __ZNKSt3__112basic_stringIcNS_11char_traitsIcEENS_9allocatorIcEEE4sizeB7v160006Ev, symObjAddr: 0x3418, symBinAddr: 0x100004F0C, symSize: 0x54 }
  - { offsetInCU: 0x14826, offset: 0x14826, size: 0x8, addend: 0x0, symName: __ZNKSt3__112basic_stringIcNS_11char_traitsIcEENS_9allocatorIcEEE9__is_longB7v160006Ev, symObjAddr: 0x346C, symBinAddr: 0x100004F60, symSize: 0x38 }
  - { offsetInCU: 0x1484C, offset: 0x1484C, size: 0x8, addend: 0x0, symName: __ZNKSt3__112basic_stringIcNS_11char_traitsIcEENS_9allocatorIcEEE15__get_long_sizeB7v160006Ev, symObjAddr: 0x34A4, symBinAddr: 0x100004F98, symSize: 0x28 }
  - { offsetInCU: 0x14872, offset: 0x14872, size: 0x8, addend: 0x0, symName: __ZNKSt3__112basic_stringIcNS_11char_traitsIcEENS_9allocatorIcEEE16__get_short_sizeB7v160006Ev, symObjAddr: 0x34CC, symBinAddr: 0x100004FC0, symSize: 0x34 }
  - { offsetInCU: 0x14898, offset: 0x14898, size: 0x8, addend: 0x0, symName: __ZNKSt3__117__compressed_pairINS_12basic_stringIcNS_11char_traitsIcEENS_9allocatorIcEEE5__repES5_E5firstB7v160006Ev, symObjAddr: 0x3500, symBinAddr: 0x100004FF4, symSize: 0x24 }
  - { offsetInCU: 0x148BE, offset: 0x148BE, size: 0x8, addend: 0x0, symName: __ZNKSt3__122__compressed_pair_elemINS_12basic_stringIcNS_11char_traitsIcEENS_9allocatorIcEEE5__repELi0ELb0EE5__getB7v160006Ev, symObjAddr: 0x3524, symBinAddr: 0x100005018, symSize: 0x14 }
  - { offsetInCU: 0x148E4, offset: 0x148E4, size: 0x8, addend: 0x0, symName: __ZNKSt3__112basic_stringIcNS_11char_traitsIcEENS_9allocatorIcEEE4dataB7v160006Ev, symObjAddr: 0x3538, symBinAddr: 0x10000502C, symSize: 0x28 }
  - { offsetInCU: 0x1490A, offset: 0x1490A, size: 0x8, addend: 0x0, symName: __ZNKSt3__112basic_stringIcNS_11char_traitsIcEENS_9allocatorIcEEE13__get_pointerB7v160006Ev, symObjAddr: 0x3574, symBinAddr: 0x100005068, symSize: 0x54 }
  - { offsetInCU: 0x14930, offset: 0x14930, size: 0x8, addend: 0x0, symName: __ZNKSt3__112basic_stringIcNS_11char_traitsIcEENS_9allocatorIcEEE18__get_long_pointerB7v160006Ev, symObjAddr: 0x35C8, symBinAddr: 0x1000050BC, symSize: 0x28 }
  - { offsetInCU: 0x14956, offset: 0x14956, size: 0x8, addend: 0x0, symName: __ZNKSt3__112basic_stringIcNS_11char_traitsIcEENS_9allocatorIcEEE19__get_short_pointerB7v160006Ev, symObjAddr: 0x35F0, symBinAddr: 0x1000050E4, symSize: 0x28 }
  - { offsetInCU: 0x1497C, offset: 0x1497C, size: 0x8, addend: 0x0, symName: __ZNSt3__114pointer_traitsIPKcE10pointer_toB7v160006ERS1_, symObjAddr: 0x3618, symBinAddr: 0x10000510C, symSize: 0x14 }
  - { offsetInCU: 0x1499F, offset: 0x1499F, size: 0x8, addend: 0x0, symName: __ZL7Py_TYPEP7_object, symObjAddr: 0x362C, symBinAddr: 0x100005120, symSize: 0x18 }
  - { offsetInCU: 0x149CC, offset: 0x149CC, size: 0x8, addend: 0x0, symName: __ZN13matplotlibcpp6detail12_interpreterD2Ev, symObjAddr: 0x3644, symBinAddr: 0x100005138, symSize: 0x34 }
  - { offsetInCU: 0x149F6, offset: 0x149F6, size: 0x8, addend: 0x0, symName: __ZNKSt3__13mapINS_12basic_stringIcNS_11char_traitsIcEENS_9allocatorIcEEEES6_NS_4lessIS6_EENS4_INS_4pairIKS6_S6_EEEEE5beginB7v160006Ev, symObjAddr: 0x3684, symBinAddr: 0x100005178, symSize: 0x38 }
  - { offsetInCU: 0x14A1C, offset: 0x14A1C, size: 0x8, addend: 0x0, symName: __ZNKSt3__13mapINS_12basic_stringIcNS_11char_traitsIcEENS_9allocatorIcEEEES6_NS_4lessIS6_EENS4_INS_4pairIKS6_S6_EEEEE3endB7v160006Ev, symObjAddr: 0x36EC, symBinAddr: 0x1000051E0, symSize: 0x38 }
  - { offsetInCU: 0x14A42, offset: 0x14A42, size: 0x8, addend: 0x0, symName: __ZNKSt3__120__map_const_iteratorINS_21__tree_const_iteratorINS_12__value_typeINS_12basic_stringIcNS_11char_traitsIcEENS_9allocatorIcEEEES8_EEPNS_11__tree_nodeIS9_PvEElEEEptB7v160006Ev, symObjAddr: 0x3724, symBinAddr: 0x100005218, symSize: 0x2C }
  - { offsetInCU: 0x14A68, offset: 0x14A68, size: 0x8, addend: 0x0, symName: __ZNSt3__120__map_const_iteratorINS_21__tree_const_iteratorINS_12__value_typeINS_12basic_stringIcNS_11char_traitsIcEENS_9allocatorIcEEEES8_EEPNS_11__tree_nodeIS9_PvEElEEEppB7v160006Ev, symObjAddr: 0x3750, symBinAddr: 0x100005244, symSize: 0x2C }
  - { offsetInCU: 0x14A8E, offset: 0x14A8E, size: 0x8, addend: 0x0, symName: __ZNKSt3__16__treeINS_12__value_typeINS_12basic_stringIcNS_11char_traitsIcEENS_9allocatorIcEEEES7_EENS_19__map_value_compareIS7_S8_NS_4lessIS7_EELb1EEENS5_IS8_EEE5beginB7v160006Ev, symObjAddr: 0x377C, symBinAddr: 0x100005270, symSize: 0x34 }
  - { offsetInCU: 0x14AB4, offset: 0x14AB4, size: 0x8, addend: 0x0, symName: __ZNSt3__120__map_const_iteratorINS_21__tree_const_iteratorINS_12__value_typeINS_12basic_stringIcNS_11char_traitsIcEENS_9allocatorIcEEEES8_EEPNS_11__tree_nodeIS9_PvEElEEEC1B7v160006ESE_, symObjAddr: 0x37B0, symBinAddr: 0x1000052A4, symSize: 0x34 }
  - { offsetInCU: 0x14AED, offset: 0x14AED, size: 0x8, addend: 0x0, symName: __ZNKSt3__16__treeINS_12__value_typeINS_12basic_stringIcNS_11char_traitsIcEENS_9allocatorIcEEEES7_EENS_19__map_value_compareIS7_S8_NS_4lessIS7_EELb1EEENS5_IS8_EEE12__begin_nodeB7v160006Ev, symObjAddr: 0x37E4, symBinAddr: 0x1000052D8, symSize: 0x14 }
  - { offsetInCU: 0x14B13, offset: 0x14B13, size: 0x8, addend: 0x0, symName: __ZNSt3__121__tree_const_iteratorINS_12__value_typeINS_12basic_stringIcNS_11char_traitsIcEENS_9allocatorIcEEEES7_EEPNS_11__tree_nodeIS8_PvEElEC1B7v160006EPNS_15__tree_end_nodeIPNS_16__tree_node_baseISA_EEEE, symObjAddr: 0x37F8, symBinAddr: 0x1000052EC, symSize: 0x34 }
  - { offsetInCU: 0x14B4C, offset: 0x14B4C, size: 0x8, addend: 0x0, symName: __ZNSt3__121__tree_const_iteratorINS_12__value_typeINS_12basic_stringIcNS_11char_traitsIcEENS_9allocatorIcEEEES7_EEPNS_11__tree_nodeIS8_PvEElEC2B7v160006EPNS_15__tree_end_nodeIPNS_16__tree_node_baseISA_EEEE, symObjAddr: 0x382C, symBinAddr: 0x100005320, symSize: 0x20 }
  - { offsetInCU: 0x14B85, offset: 0x14B85, size: 0x8, addend: 0x0, symName: __ZNSt3__120__map_const_iteratorINS_21__tree_const_iteratorINS_12__value_typeINS_12basic_stringIcNS_11char_traitsIcEENS_9allocatorIcEEEES8_EEPNS_11__tree_nodeIS9_PvEElEEEC2B7v160006ESE_, symObjAddr: 0x384C, symBinAddr: 0x100005340, symSize: 0x20 }
  - { offsetInCU: 0x14BBE, offset: 0x14BBE, size: 0x8, addend: 0x0, symName: __ZNKSt3__16__treeINS_12__value_typeINS_12basic_stringIcNS_11char_traitsIcEENS_9allocatorIcEEEES7_EENS_19__map_value_compareIS7_S8_NS_4lessIS7_EELb1EEENS5_IS8_EEE3endB7v160006Ev, symObjAddr: 0x38D0, symBinAddr: 0x1000053C4, symSize: 0x34 }
  - { offsetInCU: 0x14BE4, offset: 0x14BE4, size: 0x8, addend: 0x0, symName: __ZNKSt3__16__treeINS_12__value_typeINS_12basic_stringIcNS_11char_traitsIcEENS_9allocatorIcEEEES7_EENS_19__map_value_compareIS7_S8_NS_4lessIS7_EELb1EEENS5_IS8_EEE10__end_nodeB7v160006Ev, symObjAddr: 0x3904, symBinAddr: 0x1000053F8, symSize: 0x2C }
  - { offsetInCU: 0x14C0A, offset: 0x14C0A, size: 0x8, addend: 0x0, symName: __ZNSt3__114pointer_traitsIPNS_15__tree_end_nodeIPNS_16__tree_node_baseIPvEEEEE10pointer_toB7v160006ERS6_, symObjAddr: 0x3930, symBinAddr: 0x100005424, symSize: 0x14 }
  - { offsetInCU: 0x14C2D, offset: 0x14C2D, size: 0x8, addend: 0x0, symName: __ZNKSt3__117__compressed_pairINS_15__tree_end_nodeIPNS_16__tree_node_baseIPvEEEENS_9allocatorINS_11__tree_nodeINS_12__value_typeINS_12basic_stringIcNS_11char_traitsIcEENS7_IcEEEESE_EES3_EEEEE5firstB7v160006Ev, symObjAddr: 0x3944, symBinAddr: 0x100005438, symSize: 0x24 }
  - { offsetInCU: 0x14C53, offset: 0x14C53, size: 0x8, addend: 0x0, symName: __ZNKSt3__122__compressed_pair_elemINS_15__tree_end_nodeIPNS_16__tree_node_baseIPvEEEELi0ELb0EE5__getB7v160006Ev, symObjAddr: 0x3968, symBinAddr: 0x10000545C, symSize: 0x14 }
  - { offsetInCU: 0x14C79, offset: 0x14C79, size: 0x8, addend: 0x0, symName: __ZNSt3__114pointer_traitsIPKNS_4pairIKNS_12basic_stringIcNS_11char_traitsIcEENS_9allocatorIcEEEES7_EEE10pointer_toB7v160006ERSA_, symObjAddr: 0x397C, symBinAddr: 0x100005470, symSize: 0x14 }
  - { offsetInCU: 0x14C9C, offset: 0x14C9C, size: 0x8, addend: 0x0, symName: __ZNKSt3__121__tree_const_iteratorINS_12__value_typeINS_12basic_stringIcNS_11char_traitsIcEENS_9allocatorIcEEEES7_EEPNS_11__tree_nodeIS8_PvEElEptB7v160006Ev, symObjAddr: 0x3990, symBinAddr: 0x100005484, symSize: 0x2C }
  - { offsetInCU: 0x14CC2, offset: 0x14CC2, size: 0x8, addend: 0x0, symName: __ZNKSt3__112__value_typeINS_12basic_stringIcNS_11char_traitsIcEENS_9allocatorIcEEEES6_E11__get_valueB7v160006Ev, symObjAddr: 0x39BC, symBinAddr: 0x1000054B0, symSize: 0x14 }
  - { offsetInCU: 0x14CE8, offset: 0x14CE8, size: 0x8, addend: 0x0, symName: __ZNSt3__114pointer_traitsIPKNS_12__value_typeINS_12basic_stringIcNS_11char_traitsIcEENS_9allocatorIcEEEES7_EEE10pointer_toB7v160006ERS9_, symObjAddr: 0x39D0, symBinAddr: 0x1000054C4, symSize: 0x14 }
  - { offsetInCU: 0x14D0B, offset: 0x14D0B, size: 0x8, addend: 0x0, symName: __ZNKSt3__121__tree_const_iteratorINS_12__value_typeINS_12basic_stringIcNS_11char_traitsIcEENS_9allocatorIcEEEES7_EEPNS_11__tree_nodeIS8_PvEElE8__get_npB7v160006Ev, symObjAddr: 0x39E4, symBinAddr: 0x1000054D8, symSize: 0x18 }
  - { offsetInCU: 0x14D31, offset: 0x14D31, size: 0x8, addend: 0x0, symName: __ZNSt3__121__tree_const_iteratorINS_12__value_typeINS_12basic_stringIcNS_11char_traitsIcEENS_9allocatorIcEEEES7_EEPNS_11__tree_nodeIS8_PvEElEppB7v160006Ev, symObjAddr: 0x39FC, symBinAddr: 0x1000054F0, symSize: 0x38 }
  - { offsetInCU: 0x14D57, offset: 0x14D57, size: 0x8, addend: 0x0, symName: __ZNKSt3__116__tree_node_baseIPvE15__parent_unsafeB7v160006Ev, symObjAddr: 0x3B30, symBinAddr: 0x100005624, symSize: 0x18 }
  - { offsetInCU: 0x14D7D, offset: 0x14D7D, size: 0x8, addend: 0x0, symName: __ZNSt3__112basic_stringIcNS_11char_traitsIcEENS_9allocatorIcEEEC2B7v160006Ev, symObjAddr: 0x3B48, symBinAddr: 0x10000563C, symSize: 0x54 }
  - { offsetInCU: 0x14DAC, offset: 0x14DAC, size: 0x8, addend: 0x0, symName: __ZNSt3__117__compressed_pairINS_12basic_stringIcNS_11char_traitsIcEENS_9allocatorIcEEE5__repES5_EC1B7v160006INS_18__default_init_tagESA_EEOT_OT0_, symObjAddr: 0x3B9C, symBinAddr: 0x100005690, symSize: 0x3C }
  - { offsetInCU: 0x14E04, offset: 0x14E04, size: 0x8, addend: 0x0, symName: __ZNSt3__112basic_stringIcNS_11char_traitsIcEENS_9allocatorIcEEE14__default_initB7v160006Ev, symObjAddr: 0x3BE8, symBinAddr: 0x1000056DC, symSize: 0x40 }
  - { offsetInCU: 0x14E2A, offset: 0x14E2A, size: 0x8, addend: 0x0, symName: __ZNSt3__117__compressed_pairINS_12basic_stringIcNS_11char_traitsIcEENS_9allocatorIcEEE5__repES5_EC2B7v160006INS_18__default_init_tagESA_EEOT_OT0_, symObjAddr: 0x3C28, symBinAddr: 0x10000571C, symSize: 0x3C }
  - { offsetInCU: 0x14E82, offset: 0x14E82, size: 0x8, addend: 0x0, symName: __ZNSt3__122__compressed_pair_elemINS_12basic_stringIcNS_11char_traitsIcEENS_9allocatorIcEEE5__repELi0ELb0EEC2B7v160006ENS_18__default_init_tagE, symObjAddr: 0x3C64, symBinAddr: 0x100005758, symSize: 0x14 }
  - { offsetInCU: 0x14EB7, offset: 0x14EB7, size: 0x8, addend: 0x0, symName: __ZNSt3__122__compressed_pair_elemINS_9allocatorIcEELi1ELb1EEC2B7v160006ENS_18__default_init_tagE, symObjAddr: 0x3C78, symBinAddr: 0x10000576C, symSize: 0x2C }
  - { offsetInCU: 0x14EEC, offset: 0x14EEC, size: 0x8, addend: 0x0, symName: __ZNSt3__19allocatorIcEC2B7v160006Ev, symObjAddr: 0x3CA4, symBinAddr: 0x100005798, symSize: 0x2C }
  - { offsetInCU: 0x14F16, offset: 0x14F16, size: 0x8, addend: 0x0, symName: __ZNSt3__116__non_trivial_ifILb1ENS_9allocatorIcEEEC2B7v160006Ev, symObjAddr: 0x3CD0, symBinAddr: 0x1000057C4, symSize: 0x14 }
  - { offsetInCU: 0x14F40, offset: 0x14F40, size: 0x8, addend: 0x0, symName: __ZNSt3__117__compressed_pairINS_12basic_stringIcNS_11char_traitsIcEENS_9allocatorIcEEE5__repES5_E5firstB7v160006Ev, symObjAddr: 0x3CE4, symBinAddr: 0x1000057D8, symSize: 0x24 }
  - { offsetInCU: 0x14F66, offset: 0x14F66, size: 0x8, addend: 0x0, symName: __ZNSt3__122__compressed_pair_elemINS_12basic_stringIcNS_11char_traitsIcEENS_9allocatorIcEEE5__repELi0ELb0EE5__getB7v160006Ev, symObjAddr: 0x3D08, symBinAddr: 0x1000057FC, symSize: 0x14 }
  - { offsetInCU: 0x14F8C, offset: 0x14F8C, size: 0x8, addend: 0x0, symName: __ZNSt3__16vectorIdNS_9allocatorIdEEEC2B7v160006Ev, symObjAddr: 0x3D1C, symBinAddr: 0x100005810, symSize: 0x58 }
  - { offsetInCU: 0x14FBB, offset: 0x14FBB, size: 0x8, addend: 0x0, symName: __ZNSt3__117__compressed_pairIPdNS_9allocatorIdEEEC1B7v160006IDnNS_18__default_init_tagEEEOT_OT0_, symObjAddr: 0x3D74, symBinAddr: 0x100005868, symSize: 0x3C }
  - { offsetInCU: 0x15013, offset: 0x15013, size: 0x8, addend: 0x0, symName: __ZNSt3__117__compressed_pairIPdNS_9allocatorIdEEEC2B7v160006IDnNS_18__default_init_tagEEEOT_OT0_, symObjAddr: 0x3DC0, symBinAddr: 0x1000058B4, symSize: 0x40 }
  - { offsetInCU: 0x1506B, offset: 0x1506B, size: 0x8, addend: 0x0, symName: __ZNSt3__122__compressed_pair_elemIPdLi0ELb0EEC2B7v160006IDnvEEOT_, symObjAddr: 0x3E00, symBinAddr: 0x1000058F4, symSize: 0x1C }
  - { offsetInCU: 0x150AD, offset: 0x150AD, size: 0x8, addend: 0x0, symName: __ZNSt3__122__compressed_pair_elemINS_9allocatorIdEELi1ELb1EEC2B7v160006ENS_18__default_init_tagE, symObjAddr: 0x3E1C, symBinAddr: 0x100005910, symSize: 0x2C }
  - { offsetInCU: 0x150E2, offset: 0x150E2, size: 0x8, addend: 0x0, symName: __ZNSt3__19allocatorIdEC2B7v160006Ev, symObjAddr: 0x3E48, symBinAddr: 0x10000593C, symSize: 0x2C }
  - { offsetInCU: 0x1510C, offset: 0x1510C, size: 0x8, addend: 0x0, symName: __ZNSt3__116__non_trivial_ifILb1ENS_9allocatorIdEEEC2B7v160006Ev, symObjAddr: 0x3E74, symBinAddr: 0x100005968, symSize: 0x14 }
  - { offsetInCU: 0x15136, offset: 0x15136, size: 0x8, addend: 0x0, symName: __ZNSt3__16vectorIdNS_9allocatorIdEEED2B7v160006Ev, symObjAddr: 0x3E88, symBinAddr: 0x10000597C, symSize: 0x44 }
  - { offsetInCU: 0x15160, offset: 0x15160, size: 0x8, addend: 0x0, symName: __ZNSt3__16vectorIdNS_9allocatorIdEEE16__destroy_vectorC1ERS3_, symObjAddr: 0x3ECC, symBinAddr: 0x1000059C0, symSize: 0x34 }
  - { offsetInCU: 0x15199, offset: 0x15199, size: 0x8, addend: 0x0, symName: __ZNSt3__16vectorIdNS_9allocatorIdEEE16__destroy_vectorclB7v160006Ev, symObjAddr: 0x3F00, symBinAddr: 0x1000059F4, symSize: 0x9C }
  - { offsetInCU: 0x151BF, offset: 0x151BF, size: 0x8, addend: 0x0, symName: __ZNSt3__16vectorIdNS_9allocatorIdEEE16__destroy_vectorC2ERS3_, symObjAddr: 0x3F9C, symBinAddr: 0x100005A90, symSize: 0x20 }
  - { offsetInCU: 0x151F8, offset: 0x151F8, size: 0x8, addend: 0x0, symName: __ZNKSt3__16vectorIdNS_9allocatorIdEEE17__annotate_deleteB7v160006Ev, symObjAddr: 0x3FBC, symBinAddr: 0x100005AB0, symSize: 0xB8 }
  - { offsetInCU: 0x1521E, offset: 0x1521E, size: 0x8, addend: 0x0, symName: __ZNSt3__16vectorIdNS_9allocatorIdEEE7__clearB7v160006Ev, symObjAddr: 0x4084, symBinAddr: 0x100005B78, symSize: 0x28 }
  - { offsetInCU: 0x15244, offset: 0x15244, size: 0x8, addend: 0x0, symName: __ZNSt3__116allocator_traitsINS_9allocatorIdEEE10deallocateB7v160006ERS2_Pdm, symObjAddr: 0x40AC, symBinAddr: 0x100005BA0, symSize: 0x34 }
  - { offsetInCU: 0x15285, offset: 0x15285, size: 0x8, addend: 0x0, symName: __ZNSt3__16vectorIdNS_9allocatorIdEEE7__allocB7v160006Ev, symObjAddr: 0x40E0, symBinAddr: 0x100005BD4, symSize: 0x28 }
  - { offsetInCU: 0x152AB, offset: 0x152AB, size: 0x8, addend: 0x0, symName: __ZNKSt3__16vectorIdNS_9allocatorIdEEE8capacityB7v160006Ev, symObjAddr: 0x4108, symBinAddr: 0x100005BFC, symSize: 0x40 }
  - { offsetInCU: 0x152D1, offset: 0x152D1, size: 0x8, addend: 0x0, symName: __ZNKSt3__16vectorIdNS_9allocatorIdEEE31__annotate_contiguous_containerB7v160006EPKvS5_S5_S5_, symObjAddr: 0x4148, symBinAddr: 0x100005C3C, symSize: 0x20 }
  - { offsetInCU: 0x15323, offset: 0x15323, size: 0x8, addend: 0x0, symName: __ZNKSt3__16vectorIdNS_9allocatorIdEEE4dataB7v160006Ev, symObjAddr: 0x4168, symBinAddr: 0x100005C5C, symSize: 0x28 }
  - { offsetInCU: 0x15349, offset: 0x15349, size: 0x8, addend: 0x0, symName: __ZNSt3__16vectorIdNS_9allocatorIdEEE22__base_destruct_at_endB7v160006EPd, symObjAddr: 0x41A4, symBinAddr: 0x100005C98, symSize: 0x8C }
  - { offsetInCU: 0x1538D, offset: 0x1538D, size: 0x8, addend: 0x0, symName: __ZNSt3__116allocator_traitsINS_9allocatorIdEEE7destroyB7v160006IdvEEvRS2_PT_, symObjAddr: 0x4230, symBinAddr: 0x100005D24, symSize: 0x2C }
  - { offsetInCU: 0x153C9, offset: 0x153C9, size: 0x8, addend: 0x0, symName: __ZNSt3__19allocatorIdE7destroyB7v160006EPd, symObjAddr: 0x425C, symBinAddr: 0x100005D50, symSize: 0x14 }
  - { offsetInCU: 0x153FD, offset: 0x153FD, size: 0x8, addend: 0x0, symName: __ZNSt3__19allocatorIdE10deallocateB7v160006EPdm, symObjAddr: 0x4270, symBinAddr: 0x100005D64, symSize: 0x40 }
  - { offsetInCU: 0x1543F, offset: 0x1543F, size: 0x8, addend: 0x0, symName: __ZNSt3__117__compressed_pairIPdNS_9allocatorIdEEE6secondB7v160006Ev, symObjAddr: 0x432C, symBinAddr: 0x100005E20, symSize: 0x24 }
  - { offsetInCU: 0x15465, offset: 0x15465, size: 0x8, addend: 0x0, symName: __ZNSt3__122__compressed_pair_elemINS_9allocatorIdEELi1ELb1EE5__getB7v160006Ev, symObjAddr: 0x4350, symBinAddr: 0x100005E44, symSize: 0x14 }
  - { offsetInCU: 0x1548B, offset: 0x1548B, size: 0x8, addend: 0x0, symName: __ZNKSt3__16vectorIdNS_9allocatorIdEEE9__end_capB7v160006Ev, symObjAddr: 0x4364, symBinAddr: 0x100005E58, symSize: 0x28 }
  - { offsetInCU: 0x154B1, offset: 0x154B1, size: 0x8, addend: 0x0, symName: __ZNKSt3__117__compressed_pairIPdNS_9allocatorIdEEE5firstB7v160006Ev, symObjAddr: 0x438C, symBinAddr: 0x100005E80, symSize: 0x24 }
  - { offsetInCU: 0x154D7, offset: 0x154D7, size: 0x8, addend: 0x0, symName: __ZNKSt3__122__compressed_pair_elemIPdLi0ELb0EE5__getB7v160006Ev, symObjAddr: 0x43B0, symBinAddr: 0x100005EA4, symSize: 0x14 }
  - { offsetInCU: 0x154FD, offset: 0x154FD, size: 0x8, addend: 0x0, symName: __ZNSt3__112basic_stringIcNS_11char_traitsIcEENS_9allocatorIcEEEC2B7v160006IDnEEPKc, symObjAddr: 0x43C4, symBinAddr: 0x100005EB8, symSize: 0x60 }
  - { offsetInCU: 0x1553B, offset: 0x1553B, size: 0x8, addend: 0x0, symName: __ZNSt3__111char_traitsIcE6lengthEPKc, symObjAddr: 0x4424, symBinAddr: 0x100005F18, symSize: 0x34 }
  - { offsetInCU: 0x1557B, offset: 0x1557B, size: 0x8, addend: 0x0, symName: __ZNKSt3__113basic_ostreamIcNS_11char_traitsIcEEE6sentrycvbB7v160006Ev, symObjAddr: 0x4668, symBinAddr: 0x10000615C, symSize: 0x1C }
  - { offsetInCU: 0x155A1, offset: 0x155A1, size: 0x8, addend: 0x0, symName: __ZNSt3__119ostreambuf_iteratorIcNS_11char_traitsIcEEEC1B7v160006ERNS_13basic_ostreamIcS2_EE, symObjAddr: 0x48C4, symBinAddr: 0x1000063B8, symSize: 0x34 }
  - { offsetInCU: 0x155D9, offset: 0x155D9, size: 0x8, addend: 0x0, symName: __ZNKSt3__18ios_base5flagsB7v160006Ev, symObjAddr: 0x48F8, symBinAddr: 0x1000063EC, symSize: 0x18 }
  - { offsetInCU: 0x15601, offset: 0x15601, size: 0x8, addend: 0x0, symName: __ZNKSt3__19basic_iosIcNS_11char_traitsIcEEE4fillB7v160006Ev, symObjAddr: 0x4910, symBinAddr: 0x100006404, symSize: 0x64 }
  - { offsetInCU: 0x15629, offset: 0x15629, size: 0x8, addend: 0x0, symName: __ZNKSt3__119ostreambuf_iteratorIcNS_11char_traitsIcEEE6failedB7v160006Ev, symObjAddr: 0x4974, symBinAddr: 0x100006468, symSize: 0x24 }
  - { offsetInCU: 0x1564F, offset: 0x1564F, size: 0x8, addend: 0x0, symName: __ZNSt3__19basic_iosIcNS_11char_traitsIcEEE8setstateB7v160006Ej, symObjAddr: 0x4998, symBinAddr: 0x10000648C, symSize: 0x2C }
  - { offsetInCU: 0x15684, offset: 0x15684, size: 0x8, addend: 0x0, symName: __ZNKSt3__18ios_base5widthB7v160006Ev, symObjAddr: 0x49C4, symBinAddr: 0x1000064B8, symSize: 0x18 }
  - { offsetInCU: 0x156AC, offset: 0x156AC, size: 0x8, addend: 0x0, symName: __ZNSt3__115basic_streambufIcNS_11char_traitsIcEEE5sputnB7v160006EPKcl, symObjAddr: 0x49DC, symBinAddr: 0x1000064D0, symSize: 0x3C }
  - { offsetInCU: 0x156EE, offset: 0x156EE, size: 0x8, addend: 0x0, symName: __ZNSt3__112basic_stringIcNS_11char_traitsIcEENS_9allocatorIcEEEC1B7v160006Emc, symObjAddr: 0x4A18, symBinAddr: 0x10000650C, symSize: 0x3C }
  - { offsetInCU: 0x15736, offset: 0x15736, size: 0x8, addend: 0x0, symName: __ZNSt3__18ios_base5widthB7v160006El, symObjAddr: 0x4A54, symBinAddr: 0x100006548, symSize: 0x2C }
  - { offsetInCU: 0x1577C, offset: 0x1577C, size: 0x8, addend: 0x0, symName: __ZNSt3__112basic_stringIcNS_11char_traitsIcEENS_9allocatorIcEEEC2B7v160006Emc, symObjAddr: 0x4A80, symBinAddr: 0x100006574, symSize: 0x54 }
  - { offsetInCU: 0x157C4, offset: 0x157C4, size: 0x8, addend: 0x0, symName: __ZNSt3__119ostreambuf_iteratorIcNS_11char_traitsIcEEEC2B7v160006ERNS_13basic_ostreamIcS2_EE, symObjAddr: 0x4AD4, symBinAddr: 0x1000065C8, symSize: 0x54 }
  - { offsetInCU: 0x157FC, offset: 0x157FC, size: 0x8, addend: 0x0, symName: __ZNKSt3__19basic_iosIcNS_11char_traitsIcEEE5rdbufB7v160006Ev, symObjAddr: 0x4B28, symBinAddr: 0x10000661C, symSize: 0x24 }
  - { offsetInCU: 0x15824, offset: 0x15824, size: 0x8, addend: 0x0, symName: __ZNKSt3__18ios_base5rdbufB7v160006Ev, symObjAddr: 0x4B4C, symBinAddr: 0x100006640, symSize: 0x18 }
  - { offsetInCU: 0x1584A, offset: 0x1584A, size: 0x8, addend: 0x0, symName: __ZNSt3__111char_traitsIcE11eq_int_typeEii, symObjAddr: 0x4B64, symBinAddr: 0x100006658, symSize: 0x28 }
  - { offsetInCU: 0x1587B, offset: 0x1587B, size: 0x8, addend: 0x0, symName: __ZNSt3__111char_traitsIcE3eofEv, symObjAddr: 0x4B8C, symBinAddr: 0x100006680, symSize: 0x8 }
  - { offsetInCU: 0x1588F, offset: 0x1588F, size: 0x8, addend: 0x0, symName: __ZNKSt3__19basic_iosIcNS_11char_traitsIcEEE5widenB7v160006Ec, symObjAddr: 0x4B94, symBinAddr: 0x100006688, symSize: 0x84 }
  - { offsetInCU: 0x158FD, offset: 0x158FD, size: 0x8, addend: 0x0, symName: __ZNKSt3__15ctypeIcE5widenB7v160006Ec, symObjAddr: 0x4C44, symBinAddr: 0x100006738, symSize: 0x38 }
  - { offsetInCU: 0x15932, offset: 0x15932, size: 0x8, addend: 0x0, symName: __ZNSt3__18ios_base8setstateB7v160006Ej, symObjAddr: 0x4C7C, symBinAddr: 0x100006770, symSize: 0x34 }
  - { offsetInCU: 0x15969, offset: 0x15969, size: 0x8, addend: 0x0, symName: __ZNSt3__13mapINS_12basic_stringIcNS_11char_traitsIcEENS_9allocatorIcEEEES6_NS_4lessIS6_EENS4_INS_4pairIKS6_S6_EEEEED2B7v160006Ev, symObjAddr: 0x4CB0, symBinAddr: 0x1000067A4, symSize: 0x2C }
  - { offsetInCU: 0x15993, offset: 0x15993, size: 0x8, addend: 0x0, symName: __ZNSt3__16__treeINS_12__value_typeINS_12basic_stringIcNS_11char_traitsIcEENS_9allocatorIcEEEES7_EENS_19__map_value_compareIS7_S8_NS_4lessIS7_EELb1EEENS5_IS8_EEED1Ev, symObjAddr: 0x4CDC, symBinAddr: 0x1000067D0, symSize: 0x2C }
  - { offsetInCU: 0x159BF, offset: 0x159BF, size: 0x8, addend: 0x0, symName: __ZNSt3__16__treeINS_12__value_typeINS_12basic_stringIcNS_11char_traitsIcEENS_9allocatorIcEEEES7_EENS_19__map_value_compareIS7_S8_NS_4lessIS7_EELb1EEENS5_IS8_EEED2Ev, symObjAddr: 0x4D08, symBinAddr: 0x1000067FC, symSize: 0x38 }
  - { offsetInCU: 0x159EB, offset: 0x159EB, size: 0x8, addend: 0x0, symName: __ZNSt3__16__treeINS_12__value_typeINS_12basic_stringIcNS_11char_traitsIcEENS_9allocatorIcEEEES7_EENS_19__map_value_compareIS7_S8_NS_4lessIS7_EELb1EEENS5_IS8_EEE7destroyEPNS_11__tree_nodeIS8_PvEE, symObjAddr: 0x4D40, symBinAddr: 0x100006834, symSize: 0xAC }
  - { offsetInCU: 0x15A37, offset: 0x15A37, size: 0x8, addend: 0x0, symName: __ZNKSt3__16__treeINS_12__value_typeINS_12basic_stringIcNS_11char_traitsIcEENS_9allocatorIcEEEES7_EENS_19__map_value_compareIS7_S8_NS_4lessIS7_EELb1EEENS5_IS8_EEE6__rootB7v160006Ev, symObjAddr: 0x4DEC, symBinAddr: 0x1000068E0, symSize: 0x28 }
  - { offsetInCU: 0x15A5D, offset: 0x15A5D, size: 0x8, addend: 0x0, symName: __ZNSt3__16__treeINS_12__value_typeINS_12basic_stringIcNS_11char_traitsIcEENS_9allocatorIcEEEES7_EENS_19__map_value_compareIS7_S8_NS_4lessIS7_EELb1EEENS5_IS8_EEE12__node_allocB7v160006Ev, symObjAddr: 0x4E14, symBinAddr: 0x100006908, symSize: 0x28 }
  - { offsetInCU: 0x15A88, offset: 0x15A88, size: 0x8, addend: 0x0, symName: __ZNSt3__116allocator_traitsINS_9allocatorINS_11__tree_nodeINS_12__value_typeINS_12basic_stringIcNS_11char_traitsIcEENS1_IcEEEES8_EEPvEEEEE7destroyB7v160006INS_4pairIKS8_S8_EEvvEEvRSC_PT_, symObjAddr: 0x4E3C, symBinAddr: 0x100006930, symSize: 0x28 }
  - { offsetInCU: 0x15AC1, offset: 0x15AC1, size: 0x8, addend: 0x0, symName: __ZNSt3__122__tree_key_value_typesINS_12__value_typeINS_12basic_stringIcNS_11char_traitsIcEENS_9allocatorIcEEEES7_EEE9__get_ptrB7v160006ERS8_, symObjAddr: 0x4E64, symBinAddr: 0x100006958, symSize: 0x24 }
  - { offsetInCU: 0x15AE4, offset: 0x15AE4, size: 0x8, addend: 0x0, symName: __ZNSt3__116allocator_traitsINS_9allocatorINS_11__tree_nodeINS_12__value_typeINS_12basic_stringIcNS_11char_traitsIcEENS1_IcEEEES8_EEPvEEEEE10deallocateB7v160006ERSC_PSB_m, symObjAddr: 0x4E88, symBinAddr: 0x10000697C, symSize: 0x34 }
  - { offsetInCU: 0x15B25, offset: 0x15B25, size: 0x8, addend: 0x0, symName: __ZNSt3__117__compressed_pairINS_15__tree_end_nodeIPNS_16__tree_node_baseIPvEEEENS_9allocatorINS_11__tree_nodeINS_12__value_typeINS_12basic_stringIcNS_11char_traitsIcEENS7_IcEEEESE_EES3_EEEEE6secondB7v160006Ev, symObjAddr: 0x4EBC, symBinAddr: 0x1000069B0, symSize: 0x24 }
  - { offsetInCU: 0x15B4B, offset: 0x15B4B, size: 0x8, addend: 0x0, symName: __ZNSt3__122__compressed_pair_elemINS_9allocatorINS_11__tree_nodeINS_12__value_typeINS_12basic_stringIcNS_11char_traitsIcEENS1_IcEEEES8_EEPvEEEELi1ELb1EE5__getB7v160006Ev, symObjAddr: 0x4EE0, symBinAddr: 0x1000069D4, symSize: 0x14 }
  - { offsetInCU: 0x15B71, offset: 0x15B71, size: 0x8, addend: 0x0, symName: __ZNSt3__14pairIKNS_12basic_stringIcNS_11char_traitsIcEENS_9allocatorIcEEEES6_ED1Ev, symObjAddr: 0x4EF4, symBinAddr: 0x1000069E8, symSize: 0x2C }
  - { offsetInCU: 0x15B9D, offset: 0x15B9D, size: 0x8, addend: 0x0, symName: __ZNSt3__14pairIKNS_12basic_stringIcNS_11char_traitsIcEENS_9allocatorIcEEEES6_ED2Ev, symObjAddr: 0x4F20, symBinAddr: 0x100006A14, symSize: 0x38 }
  - { offsetInCU: 0x15BC9, offset: 0x15BC9, size: 0x8, addend: 0x0, symName: __ZNSt3__112__value_typeINS_12basic_stringIcNS_11char_traitsIcEENS_9allocatorIcEEEES6_E11__get_valueB7v160006Ev, symObjAddr: 0x4F58, symBinAddr: 0x100006A4C, symSize: 0x14 }
  - { offsetInCU: 0x15BEF, offset: 0x15BEF, size: 0x8, addend: 0x0, symName: __ZNSt3__19allocatorINS_11__tree_nodeINS_12__value_typeINS_12basic_stringIcNS_11char_traitsIcEENS0_IcEEEES7_EEPvEEE10deallocateB7v160006EPSA_m, symObjAddr: 0x4F6C, symBinAddr: 0x100006A60, symSize: 0x44 }
  - { offsetInCU: 0x15C31, offset: 0x15C31, size: 0x8, addend: 0x0, symName: __ZNSt3__13mapINS_12basic_stringIcNS_11char_traitsIcEENS_9allocatorIcEEEES6_NS_4lessIS6_EENS4_INS_4pairIKS6_S6_EEEEEC2B7v160006Ev, symObjAddr: 0x4FB0, symBinAddr: 0x100006AA4, symSize: 0x40 }
  - { offsetInCU: 0x15C5B, offset: 0x15C5B, size: 0x8, addend: 0x0, symName: __ZNSt3__119__map_value_compareINS_12basic_stringIcNS_11char_traitsIcEENS_9allocatorIcEEEENS_12__value_typeIS6_S6_EENS_4lessIS6_EELb1EEC1B7v160006ESA_, symObjAddr: 0x4FF0, symBinAddr: 0x100006AE4, symSize: 0x2C }
  - { offsetInCU: 0x15C94, offset: 0x15C94, size: 0x8, addend: 0x0, symName: __ZNSt3__16__treeINS_12__value_typeINS_12basic_stringIcNS_11char_traitsIcEENS_9allocatorIcEEEES7_EENS_19__map_value_compareIS7_S8_NS_4lessIS7_EELb1EEENS5_IS8_EEEC1ERKSC_, symObjAddr: 0x501C, symBinAddr: 0x100006B10, symSize: 0x34 }
  - { offsetInCU: 0x15CCF, offset: 0x15CCF, size: 0x8, addend: 0x0, symName: __ZNSt3__119__map_value_compareINS_12basic_stringIcNS_11char_traitsIcEENS_9allocatorIcEEEENS_12__value_typeIS6_S6_EENS_4lessIS6_EELb1EEC2B7v160006ESA_, symObjAddr: 0x5050, symBinAddr: 0x100006B44, symSize: 0x14 }
  - { offsetInCU: 0x15D08, offset: 0x15D08, size: 0x8, addend: 0x0, symName: __ZNSt3__16__treeINS_12__value_typeINS_12basic_stringIcNS_11char_traitsIcEENS_9allocatorIcEEEES7_EENS_19__map_value_compareIS7_S8_NS_4lessIS7_EELb1EEENS5_IS8_EEEC2ERKSC_, symObjAddr: 0x5064, symBinAddr: 0x100006B58, symSize: 0x7C }
  - { offsetInCU: 0x15D43, offset: 0x15D43, size: 0x8, addend: 0x0, symName: __ZNSt3__117__compressed_pairINS_15__tree_end_nodeIPNS_16__tree_node_baseIPvEEEENS_9allocatorINS_11__tree_nodeINS_12__value_typeINS_12basic_stringIcNS_11char_traitsIcEENS7_IcEEEESE_EES3_EEEEEC1B7v160006ILb1EvEEv, symObjAddr: 0x50E0, symBinAddr: 0x100006BD4, symSize: 0x2C }
  - { offsetInCU: 0x15D7D, offset: 0x15D7D, size: 0x8, addend: 0x0, symName: __ZNSt3__117__compressed_pairImNS_19__map_value_compareINS_12basic_stringIcNS_11char_traitsIcEENS_9allocatorIcEEEENS_12__value_typeIS7_S7_EENS_4lessIS7_EELb1EEEEC1B7v160006IiRKSC_EEOT_OT0_, symObjAddr: 0x510C, symBinAddr: 0x100006C00, symSize: 0x3C }
  - { offsetInCU: 0x15DD5, offset: 0x15DD5, size: 0x8, addend: 0x0, symName: __ZNSt3__16__treeINS_12__value_typeINS_12basic_stringIcNS_11char_traitsIcEENS_9allocatorIcEEEES7_EENS_19__map_value_compareIS7_S8_NS_4lessIS7_EELb1EEENS5_IS8_EEE10__end_nodeB7v160006Ev, symObjAddr: 0x5148, symBinAddr: 0x100006C3C, symSize: 0x2C }
  - { offsetInCU: 0x15DFB, offset: 0x15DFB, size: 0x8, addend: 0x0, symName: __ZNSt3__16__treeINS_12__value_typeINS_12basic_stringIcNS_11char_traitsIcEENS_9allocatorIcEEEES7_EENS_19__map_value_compareIS7_S8_NS_4lessIS7_EELb1EEENS5_IS8_EEE12__begin_nodeB7v160006Ev, symObjAddr: 0x5174, symBinAddr: 0x100006C68, symSize: 0x14 }
  - { offsetInCU: 0x15E21, offset: 0x15E21, size: 0x8, addend: 0x0, symName: __ZNSt3__117__compressed_pairINS_15__tree_end_nodeIPNS_16__tree_node_baseIPvEEEENS_9allocatorINS_11__tree_nodeINS_12__value_typeINS_12basic_stringIcNS_11char_traitsIcEENS7_IcEEEESE_EES3_EEEEEC2B7v160006ILb1EvEEv, symObjAddr: 0x5188, symBinAddr: 0x100006C7C, symSize: 0x34 }
  - { offsetInCU: 0x15E56, offset: 0x15E56, size: 0x8, addend: 0x0, symName: __ZNSt3__122__compressed_pair_elemINS_15__tree_end_nodeIPNS_16__tree_node_baseIPvEEEELi0ELb0EEC2B7v160006ENS_16__value_init_tagE, symObjAddr: 0x51BC, symBinAddr: 0x100006CB0, symSize: 0x2C }
  - { offsetInCU: 0x15E8B, offset: 0x15E8B, size: 0x8, addend: 0x0, symName: __ZNSt3__122__compressed_pair_elemINS_9allocatorINS_11__tree_nodeINS_12__value_typeINS_12basic_stringIcNS_11char_traitsIcEENS1_IcEEEES8_EEPvEEEELi1ELb1EEC2B7v160006ENS_16__value_init_tagE, symObjAddr: 0x51E8, symBinAddr: 0x100006CDC, symSize: 0x2C }
  - { offsetInCU: 0x15EC0, offset: 0x15EC0, size: 0x8, addend: 0x0, symName: __ZNSt3__115__tree_end_nodeIPNS_16__tree_node_baseIPvEEEC1B7v160006Ev, symObjAddr: 0x5214, symBinAddr: 0x100006D08, symSize: 0x2C }
  - { offsetInCU: 0x15EEA, offset: 0x15EEA, size: 0x8, addend: 0x0, symName: __ZNSt3__115__tree_end_nodeIPNS_16__tree_node_baseIPvEEEC2B7v160006Ev, symObjAddr: 0x5240, symBinAddr: 0x100006D34, symSize: 0x18 }
  - { offsetInCU: 0x15F14, offset: 0x15F14, size: 0x8, addend: 0x0, symName: __ZNSt3__19allocatorINS_11__tree_nodeINS_12__value_typeINS_12basic_stringIcNS_11char_traitsIcEENS0_IcEEEES7_EEPvEEEC2B7v160006Ev, symObjAddr: 0x5258, symBinAddr: 0x100006D4C, symSize: 0x2C }
  - { offsetInCU: 0x15F3E, offset: 0x15F3E, size: 0x8, addend: 0x0, symName: __ZNSt3__116__non_trivial_ifILb1ENS_9allocatorINS_11__tree_nodeINS_12__value_typeINS_12basic_stringIcNS_11char_traitsIcEENS1_IcEEEES8_EEPvEEEEEC2B7v160006Ev, symObjAddr: 0x5284, symBinAddr: 0x100006D78, symSize: 0x14 }
  - { offsetInCU: 0x15F68, offset: 0x15F68, size: 0x8, addend: 0x0, symName: __ZNSt3__117__compressed_pairImNS_19__map_value_compareINS_12basic_stringIcNS_11char_traitsIcEENS_9allocatorIcEEEENS_12__value_typeIS7_S7_EENS_4lessIS7_EELb1EEEEC2B7v160006IiRKSC_EEOT_OT0_, symObjAddr: 0x5298, symBinAddr: 0x100006D8C, symSize: 0x44 }
  - { offsetInCU: 0x15FC0, offset: 0x15FC0, size: 0x8, addend: 0x0, symName: __ZNSt3__122__compressed_pair_elemImLi0ELb0EEC2B7v160006IivEEOT_, symObjAddr: 0x52DC, symBinAddr: 0x100006DD0, symSize: 0x24 }
  - { offsetInCU: 0x16002, offset: 0x16002, size: 0x8, addend: 0x0, symName: __ZNSt3__122__compressed_pair_elemINS_19__map_value_compareINS_12basic_stringIcNS_11char_traitsIcEENS_9allocatorIcEEEENS_12__value_typeIS7_S7_EENS_4lessIS7_EELb1EEELi1ELb1EEC2B7v160006IRKSC_vEEOT_, symObjAddr: 0x5300, symBinAddr: 0x100006DF4, symSize: 0x18 }
  - { offsetInCU: 0x16044, offset: 0x16044, size: 0x8, addend: 0x0, symName: __ZNSt3__117__compressed_pairINS_15__tree_end_nodeIPNS_16__tree_node_baseIPvEEEENS_9allocatorINS_11__tree_nodeINS_12__value_typeINS_12basic_stringIcNS_11char_traitsIcEENS7_IcEEEESE_EES3_EEEEE5firstB7v160006Ev, symObjAddr: 0x5318, symBinAddr: 0x100006E0C, symSize: 0x24 }
  - { offsetInCU: 0x1606A, offset: 0x1606A, size: 0x8, addend: 0x0, symName: __ZNSt3__122__compressed_pair_elemINS_15__tree_end_nodeIPNS_16__tree_node_baseIPvEEEELi0ELb0EE5__getB7v160006Ev, symObjAddr: 0x533C, symBinAddr: 0x100006E30, symSize: 0x14 }
  - { offsetInCU: 0x16090, offset: 0x16090, size: 0x8, addend: 0x0, symName: __ZNSt3__16vectorIiNS_9allocatorIiEEEC2ERKS3_, symObjAddr: 0x5350, symBinAddr: 0x100006E44, symSize: 0x114 }
  - { offsetInCU: 0x160F9, offset: 0x160F9, size: 0x8, addend: 0x0, symName: __ZNSt3__116allocator_traitsINS_9allocatorIiEEE37select_on_container_copy_constructionB7v160006IS2_vvEES2_RKS2_, symObjAddr: 0x5464, symBinAddr: 0x100006F58, symSize: 0x10 }
  - { offsetInCU: 0x16128, offset: 0x16128, size: 0x8, addend: 0x0, symName: __ZNKSt3__16vectorIiNS_9allocatorIiEEE7__allocB7v160006Ev, symObjAddr: 0x5474, symBinAddr: 0x100006F68, symSize: 0x28 }
  - { offsetInCU: 0x16153, offset: 0x16153, size: 0x8, addend: 0x0, symName: __ZNSt3__117__compressed_pairIPiNS_9allocatorIiEEEC1B7v160006IDnS3_EEOT_OT0_, symObjAddr: 0x549C, symBinAddr: 0x100006F90, symSize: 0x3C }
  - { offsetInCU: 0x161AB, offset: 0x161AB, size: 0x8, addend: 0x0, symName: __ZNSt3__16vectorIiNS_9allocatorIiEEE16__destroy_vectorC1ERS3_, symObjAddr: 0x5518, symBinAddr: 0x10000700C, symSize: 0x34 }
  - { offsetInCU: 0x161E4, offset: 0x161E4, size: 0x8, addend: 0x0, symName: __ZNSt3__16vectorIiNS_9allocatorIiEEE11__vallocateB7v160006Em, symObjAddr: 0x555C, symBinAddr: 0x100007050, symSize: 0xAC }
  - { offsetInCU: 0x16228, offset: 0x16228, size: 0x8, addend: 0x0, symName: __ZNSt3__16vectorIiNS_9allocatorIiEEE18__construct_at_endIPiLi0EEEvT_S6_m, symObjAddr: 0x5608, symBinAddr: 0x1000070FC, symSize: 0x8C }
  - { offsetInCU: 0x1629B, offset: 0x1629B, size: 0x8, addend: 0x0, symName: __ZNSt3__128__exception_guard_exceptionsINS_6vectorIiNS_9allocatorIiEEE16__destroy_vectorEE10__completeB7v160006Ev, symObjAddr: 0x5694, symBinAddr: 0x100007188, symSize: 0x1C }
  - { offsetInCU: 0x162C1, offset: 0x162C1, size: 0x8, addend: 0x0, symName: __ZNSt3__128__exception_guard_exceptionsINS_6vectorIiNS_9allocatorIiEEE16__destroy_vectorEED1B7v160006Ev, symObjAddr: 0x56B0, symBinAddr: 0x1000071A4, symSize: 0x2C }
  - { offsetInCU: 0x162EB, offset: 0x162EB, size: 0x8, addend: 0x0, symName: __ZNKSt3__117__compressed_pairIPiNS_9allocatorIiEEE6secondB7v160006Ev, symObjAddr: 0x56DC, symBinAddr: 0x1000071D0, symSize: 0x24 }
  - { offsetInCU: 0x16311, offset: 0x16311, size: 0x8, addend: 0x0, symName: __ZNKSt3__122__compressed_pair_elemINS_9allocatorIiEELi1ELb1EE5__getB7v160006Ev, symObjAddr: 0x5700, symBinAddr: 0x1000071F4, symSize: 0x14 }
  - { offsetInCU: 0x16337, offset: 0x16337, size: 0x8, addend: 0x0, symName: __ZNSt3__117__compressed_pairIPiNS_9allocatorIiEEEC2B7v160006IDnS3_EEOT_OT0_, symObjAddr: 0x5714, symBinAddr: 0x100007208, symSize: 0x44 }
  - { offsetInCU: 0x1638F, offset: 0x1638F, size: 0x8, addend: 0x0, symName: __ZNSt3__122__compressed_pair_elemIPiLi0ELb0EEC2B7v160006IDnvEEOT_, symObjAddr: 0x5758, symBinAddr: 0x10000724C, symSize: 0x1C }
  - { offsetInCU: 0x163D1, offset: 0x163D1, size: 0x8, addend: 0x0, symName: __ZNSt3__122__compressed_pair_elemINS_9allocatorIiEELi1ELb1EEC2B7v160006IS2_vEEOT_, symObjAddr: 0x5774, symBinAddr: 0x100007268, symSize: 0x18 }
  - { offsetInCU: 0x16413, offset: 0x16413, size: 0x8, addend: 0x0, symName: __ZNSt3__128__exception_guard_exceptionsINS_6vectorIiNS_9allocatorIiEEE16__destroy_vectorEEC1B7v160006ES5_, symObjAddr: 0x578C, symBinAddr: 0x100007280, symSize: 0x34 }
  - { offsetInCU: 0x1644B, offset: 0x1644B, size: 0x8, addend: 0x0, symName: __ZNSt3__128__exception_guard_exceptionsINS_6vectorIiNS_9allocatorIiEEE16__destroy_vectorEEC2B7v160006ES5_, symObjAddr: 0x57C0, symBinAddr: 0x1000072B4, symSize: 0x24 }
  - { offsetInCU: 0x16483, offset: 0x16483, size: 0x8, addend: 0x0, symName: __ZNSt3__16vectorIiNS_9allocatorIiEEE16__destroy_vectorC2ERS3_, symObjAddr: 0x57E4, symBinAddr: 0x1000072D8, symSize: 0x20 }
  - { offsetInCU: 0x164BC, offset: 0x164BC, size: 0x8, addend: 0x0, symName: __ZNKSt3__16vectorIiNS_9allocatorIiEEE8max_sizeEv, symObjAddr: 0x5804, symBinAddr: 0x1000072F8, symSize: 0x60 }
  - { offsetInCU: 0x164E4, offset: 0x164E4, size: 0x8, addend: 0x0, symName: __ZNKSt3__16vectorIiNS_9allocatorIiEEE20__throw_length_errorB7v160006Ev, symObjAddr: 0x5864, symBinAddr: 0x100007358, symSize: 0x1C }
  - { offsetInCU: 0x1650A, offset: 0x1650A, size: 0x8, addend: 0x0, symName: __ZNSt3__16vectorIiNS_9allocatorIiEEE7__allocB7v160006Ev, symObjAddr: 0x58C0, symBinAddr: 0x1000073B4, symSize: 0x28 }
  - { offsetInCU: 0x16530, offset: 0x16530, size: 0x8, addend: 0x0, symName: __ZNSt3__16vectorIiNS_9allocatorIiEEE9__end_capB7v160006Ev, symObjAddr: 0x58E8, symBinAddr: 0x1000073DC, symSize: 0x28 }
  - { offsetInCU: 0x16556, offset: 0x16556, size: 0x8, addend: 0x0, symName: __ZNKSt3__16vectorIiNS_9allocatorIiEEE14__annotate_newB7v160006Em, symObjAddr: 0x5910, symBinAddr: 0x100007404, symSize: 0xAC }
  - { offsetInCU: 0x1658B, offset: 0x1658B, size: 0x8, addend: 0x0, symName: __ZNSt3__116allocator_traitsINS_9allocatorIiEEE8max_sizeB7v160006IS2_vEEmRKS2_, symObjAddr: 0x59E8, symBinAddr: 0x1000074DC, symSize: 0x24 }
  - { offsetInCU: 0x165B8, offset: 0x165B8, size: 0x8, addend: 0x0, symName: __ZNSt3__114numeric_limitsIlE3maxB7v160006Ev, symObjAddr: 0x5A0C, symBinAddr: 0x100007500, symSize: 0x14 }
  - { offsetInCU: 0x165D6, offset: 0x165D6, size: 0x8, addend: 0x0, symName: __ZNKSt3__16__lessImmEclB7v160006ERKmS3_, symObjAddr: 0x5A74, symBinAddr: 0x100007568, symSize: 0x34 }
  - { offsetInCU: 0x16618, offset: 0x16618, size: 0x8, addend: 0x0, symName: __ZNKSt3__19allocatorIiE8max_sizeB7v160006Ev, symObjAddr: 0x5AA8, symBinAddr: 0x10000759C, symSize: 0x14 }
  - { offsetInCU: 0x1663E, offset: 0x1663E, size: 0x8, addend: 0x0, symName: __ZNSt3__123__libcpp_numeric_limitsIlLb1EE3maxB7v160006Ev, symObjAddr: 0x5ABC, symBinAddr: 0x1000075B0, symSize: 0x8 }
  - { offsetInCU: 0x16652, offset: 0x16652, size: 0x8, addend: 0x0, symName: __ZNSt12length_errorC1B7v160006EPKc, symObjAddr: 0x5B28, symBinAddr: 0x10000761C, symSize: 0x34 }
  - { offsetInCU: 0x1668A, offset: 0x1668A, size: 0x8, addend: 0x0, symName: __ZNSt12length_errorC2B7v160006EPKc, symObjAddr: 0x5B5C, symBinAddr: 0x100007650, symSize: 0x4C }
  - { offsetInCU: 0x166C2, offset: 0x166C2, size: 0x8, addend: 0x0, symName: __ZNSt3__19allocatorIiE8allocateB7v160006Em, symObjAddr: 0x5BA8, symBinAddr: 0x10000769C, symSize: 0x58 }
  - { offsetInCU: 0x166F6, offset: 0x166F6, size: 0x8, addend: 0x0, symName: __ZNSt3__117__compressed_pairIPiNS_9allocatorIiEEE6secondB7v160006Ev, symObjAddr: 0x5C80, symBinAddr: 0x100007774, symSize: 0x24 }
  - { offsetInCU: 0x1671C, offset: 0x1671C, size: 0x8, addend: 0x0, symName: __ZNSt3__122__compressed_pair_elemINS_9allocatorIiEELi1ELb1EE5__getB7v160006Ev, symObjAddr: 0x5CA4, symBinAddr: 0x100007798, symSize: 0x14 }
  - { offsetInCU: 0x16742, offset: 0x16742, size: 0x8, addend: 0x0, symName: __ZNSt3__117__compressed_pairIPiNS_9allocatorIiEEE5firstB7v160006Ev, symObjAddr: 0x5CB8, symBinAddr: 0x1000077AC, symSize: 0x24 }
  - { offsetInCU: 0x16768, offset: 0x16768, size: 0x8, addend: 0x0, symName: __ZNSt3__122__compressed_pair_elemIPiLi0ELb0EE5__getB7v160006Ev, symObjAddr: 0x5CDC, symBinAddr: 0x1000077D0, symSize: 0x14 }
  - { offsetInCU: 0x1678E, offset: 0x1678E, size: 0x8, addend: 0x0, symName: __ZNKSt3__16vectorIiNS_9allocatorIiEEE31__annotate_contiguous_containerB7v160006EPKvS5_S5_S5_, symObjAddr: 0x5CF0, symBinAddr: 0x1000077E4, symSize: 0x20 }
  - { offsetInCU: 0x167E0, offset: 0x167E0, size: 0x8, addend: 0x0, symName: __ZNKSt3__16vectorIiNS_9allocatorIiEEE4dataB7v160006Ev, symObjAddr: 0x5D10, symBinAddr: 0x100007804, symSize: 0x28 }
  - { offsetInCU: 0x16806, offset: 0x16806, size: 0x8, addend: 0x0, symName: __ZNKSt3__16vectorIiNS_9allocatorIiEEE8capacityB7v160006Ev, symObjAddr: 0x5D38, symBinAddr: 0x10000782C, symSize: 0x40 }
  - { offsetInCU: 0x1682C, offset: 0x1682C, size: 0x8, addend: 0x0, symName: __ZNKSt3__16vectorIiNS_9allocatorIiEEE9__end_capB7v160006Ev, symObjAddr: 0x5D8C, symBinAddr: 0x100007880, symSize: 0x28 }
  - { offsetInCU: 0x16852, offset: 0x16852, size: 0x8, addend: 0x0, symName: __ZNKSt3__117__compressed_pairIPiNS_9allocatorIiEEE5firstB7v160006Ev, symObjAddr: 0x5DB4, symBinAddr: 0x1000078A8, symSize: 0x24 }
  - { offsetInCU: 0x16878, offset: 0x16878, size: 0x8, addend: 0x0, symName: __ZNKSt3__122__compressed_pair_elemIPiLi0ELb0EE5__getB7v160006Ev, symObjAddr: 0x5DD8, symBinAddr: 0x1000078CC, symSize: 0x14 }
  - { offsetInCU: 0x168B7, offset: 0x168B7, size: 0x8, addend: 0x0, symName: __ZNSt3__16vectorIiNS_9allocatorIiEEE21_ConstructTransactionC1B7v160006ERS3_m, symObjAddr: 0x5DEC, symBinAddr: 0x1000078E0, symSize: 0x3C }
  - { offsetInCU: 0x168FF, offset: 0x168FF, size: 0x8, addend: 0x0, symName: __ZNSt3__16vectorIiNS_9allocatorIiEEE21_ConstructTransactionD1B7v160006Ev, symObjAddr: 0x5F1C, symBinAddr: 0x100007A10, symSize: 0x2C }
  - { offsetInCU: 0x16929, offset: 0x16929, size: 0x8, addend: 0x0, symName: __ZNSt3__16vectorIiNS_9allocatorIiEEE21_ConstructTransactionC2B7v160006ERS3_m, symObjAddr: 0x5F48, symBinAddr: 0x100007A3C, symSize: 0x44 }
  - { offsetInCU: 0x16971, offset: 0x16971, size: 0x8, addend: 0x0, symName: __ZNSt3__129_AllocatorDestroyRangeReverseINS_9allocatorIiEEPiEC1B7v160006ERS2_RS3_S6_, symObjAddr: 0x5FD8, symBinAddr: 0x100007ACC, symSize: 0x44 }
  - { offsetInCU: 0x169C8, offset: 0x169C8, size: 0x8, addend: 0x0, symName: __ZNSt3__116allocator_traitsINS_9allocatorIiEEE9constructB7v160006IiJRiEvEEvRS2_PT_DpOT0_, symObjAddr: 0x601C, symBinAddr: 0x100007B10, symSize: 0x34 }
  - { offsetInCU: 0x16A1E, offset: 0x16A1E, size: 0x8, addend: 0x0, symName: __ZNSt3__128__exception_guard_exceptionsINS_29_AllocatorDestroyRangeReverseINS_9allocatorIiEEPiEEE10__completeB7v160006Ev, symObjAddr: 0x6050, symBinAddr: 0x100007B44, symSize: 0x1C }
  - { offsetInCU: 0x16A44, offset: 0x16A44, size: 0x8, addend: 0x0, symName: __ZNSt3__128__exception_guard_exceptionsINS_29_AllocatorDestroyRangeReverseINS_9allocatorIiEEPiEEED1B7v160006Ev, symObjAddr: 0x606C, symBinAddr: 0x100007B60, symSize: 0x2C }
  - { offsetInCU: 0x16A6E, offset: 0x16A6E, size: 0x8, addend: 0x0, symName: __ZNSt3__128__exception_guard_exceptionsINS_29_AllocatorDestroyRangeReverseINS_9allocatorIiEEPiEEEC1B7v160006ES5_, symObjAddr: 0x6098, symBinAddr: 0x100007B8C, symSize: 0x34 }
  - { offsetInCU: 0x16AA7, offset: 0x16AA7, size: 0x8, addend: 0x0, symName: __ZNSt3__128__exception_guard_exceptionsINS_29_AllocatorDestroyRangeReverseINS_9allocatorIiEEPiEEEC2B7v160006ES5_, symObjAddr: 0x60CC, symBinAddr: 0x100007BC0, symSize: 0x30 }
  - { offsetInCU: 0x16AE0, offset: 0x16AE0, size: 0x8, addend: 0x0, symName: __ZNSt3__129_AllocatorDestroyRangeReverseINS_9allocatorIiEEPiEC2B7v160006ERS2_RS3_S6_, symObjAddr: 0x60FC, symBinAddr: 0x100007BF0, symSize: 0x38 }
  - { offsetInCU: 0x16B37, offset: 0x16B37, size: 0x8, addend: 0x0, symName: __ZNSt3__19allocatorIiE9constructB7v160006IiJRiEEEvPT_DpOT0_, symObjAddr: 0x6134, symBinAddr: 0x100007C28, symSize: 0x28 }
  - { offsetInCU: 0x16B8D, offset: 0x16B8D, size: 0x8, addend: 0x0, symName: __ZNSt3__128__exception_guard_exceptionsINS_29_AllocatorDestroyRangeReverseINS_9allocatorIiEEPiEEED2B7v160006Ev, symObjAddr: 0x615C, symBinAddr: 0x100007C50, symSize: 0x50 }
  - { offsetInCU: 0x16BB7, offset: 0x16BB7, size: 0x8, addend: 0x0, symName: __ZNKSt3__129_AllocatorDestroyRangeReverseINS_9allocatorIiEEPiEclB7v160006Ev, symObjAddr: 0x61AC, symBinAddr: 0x100007CA0, symSize: 0x68 }
  - { offsetInCU: 0x16BDD, offset: 0x16BDD, size: 0x8, addend: 0x0, symName: __ZNSt3__116reverse_iteratorIPiEC1B7v160006ES1_, symObjAddr: 0x6284, symBinAddr: 0x100007D78, symSize: 0x34 }
  - { offsetInCU: 0x16C15, offset: 0x16C15, size: 0x8, addend: 0x0, symName: __ZNSt3__116allocator_traitsINS_9allocatorIiEEE7destroyB7v160006IivEEvRS2_PT_, symObjAddr: 0x6300, symBinAddr: 0x100007DF4, symSize: 0x2C }
  - { offsetInCU: 0x16C51, offset: 0x16C51, size: 0x8, addend: 0x0, symName: __ZNSt3__116reverse_iteratorIPiEppB7v160006Ev, symObjAddr: 0x6350, symBinAddr: 0x100007E44, symSize: 0x20 }
  - { offsetInCU: 0x16C77, offset: 0x16C77, size: 0x8, addend: 0x0, symName: __ZNKSt3__116reverse_iteratorIPiE4baseB7v160006Ev, symObjAddr: 0x6370, symBinAddr: 0x100007E64, symSize: 0x18 }
  - { offsetInCU: 0x16C9D, offset: 0x16C9D, size: 0x8, addend: 0x0, symName: __ZNSt3__19allocatorIiE7destroyB7v160006EPi, symObjAddr: 0x6388, symBinAddr: 0x100007E7C, symSize: 0x14 }
  - { offsetInCU: 0x16CD6, offset: 0x16CD6, size: 0x8, addend: 0x0, symName: __ZNSt3__119__to_address_helperINS_16reverse_iteratorIPiEEvE6__callB7v160006ERKS3_, symObjAddr: 0x639C, symBinAddr: 0x100007E90, symSize: 0x38 }
  - { offsetInCU: 0x16CF8, offset: 0x16CF8, size: 0x8, addend: 0x0, symName: __ZNKSt3__116reverse_iteratorIPiEptB7v160006Ev, symObjAddr: 0x63D4, symBinAddr: 0x100007EC8, symSize: 0x24 }
  - { offsetInCU: 0x16D1E, offset: 0x16D1E, size: 0x8, addend: 0x0, symName: __ZNKSt3__116reverse_iteratorIPiEdeB7v160006Ev, symObjAddr: 0x63F8, symBinAddr: 0x100007EEC, symSize: 0x28 }
  - { offsetInCU: 0x16D52, offset: 0x16D52, size: 0x8, addend: 0x0, symName: __ZNSt3__116reverse_iteratorIPiEC2B7v160006ES1_, symObjAddr: 0x6420, symBinAddr: 0x100007F14, symSize: 0x28 }
  - { offsetInCU: 0x16D8A, offset: 0x16D8A, size: 0x8, addend: 0x0, symName: __ZNSt3__16vectorIiNS_9allocatorIiEEE21_ConstructTransactionD2B7v160006Ev, symObjAddr: 0x6448, symBinAddr: 0x100007F3C, symSize: 0x20 }
  - { offsetInCU: 0x16DB4, offset: 0x16DB4, size: 0x8, addend: 0x0, symName: __ZNSt3__128__exception_guard_exceptionsINS_6vectorIiNS_9allocatorIiEEE16__destroy_vectorEED2B7v160006Ev, symObjAddr: 0x6468, symBinAddr: 0x100007F5C, symSize: 0x50 }
  - { offsetInCU: 0x16DDE, offset: 0x16DDE, size: 0x8, addend: 0x0, symName: __ZNSt3__16vectorIiNS_9allocatorIiEEE16__destroy_vectorclB7v160006Ev, symObjAddr: 0x64B8, symBinAddr: 0x100007FAC, symSize: 0x9C }
  - { offsetInCU: 0x16E04, offset: 0x16E04, size: 0x8, addend: 0x0, symName: __ZNKSt3__16vectorIiNS_9allocatorIiEEE17__annotate_deleteB7v160006Ev, symObjAddr: 0x6554, symBinAddr: 0x100008048, symSize: 0xB8 }
  - { offsetInCU: 0x16E2A, offset: 0x16E2A, size: 0x8, addend: 0x0, symName: __ZNSt3__16vectorIiNS_9allocatorIiEEE7__clearB7v160006Ev, symObjAddr: 0x661C, symBinAddr: 0x100008110, symSize: 0x28 }
  - { offsetInCU: 0x16E50, offset: 0x16E50, size: 0x8, addend: 0x0, symName: __ZNSt3__116allocator_traitsINS_9allocatorIiEEE10deallocateB7v160006ERS2_Pim, symObjAddr: 0x6644, symBinAddr: 0x100008138, symSize: 0x34 }
  - { offsetInCU: 0x16E91, offset: 0x16E91, size: 0x8, addend: 0x0, symName: __ZNSt3__16vectorIiNS_9allocatorIiEEE22__base_destruct_at_endB7v160006EPi, symObjAddr: 0x6678, symBinAddr: 0x10000816C, symSize: 0x8C }
  - { offsetInCU: 0x16ED5, offset: 0x16ED5, size: 0x8, addend: 0x0, symName: __ZNSt3__19allocatorIiE10deallocateB7v160006EPim, symObjAddr: 0x6704, symBinAddr: 0x1000081F8, symSize: 0x40 }
  - { offsetInCU: 0x16F17, offset: 0x16F17, size: 0x8, addend: 0x0, symName: __ZNSt3__16vectorIiNS_9allocatorIiEEED2B7v160006Ev, symObjAddr: 0x6744, symBinAddr: 0x100008238, symSize: 0x44 }
  - { offsetInCU: 0x16F41, offset: 0x16F41, size: 0x8, addend: 0x0, symName: __ZNSt3__16vectorIdNS_9allocatorIdEEE9__end_capB7v160006Ev, symObjAddr: 0x6788, symBinAddr: 0x10000827C, symSize: 0x28 }
  - { offsetInCU: 0x16F6C, offset: 0x16F6C, size: 0x8, addend: 0x0, symName: __ZNSt3__16vectorIdNS_9allocatorIdEEE22__construct_one_at_endB7v160006IJdEEEvDpOT_, symObjAddr: 0x67B0, symBinAddr: 0x1000082A4, symSize: 0x90 }
  - { offsetInCU: 0x16FBB, offset: 0x16FBB, size: 0x8, addend: 0x0, symName: __ZNSt3__16vectorIdNS_9allocatorIdEEE21__push_back_slow_pathIdEEvOT_, symObjAddr: 0x6840, symBinAddr: 0x100008334, symSize: 0xD8 }
  - { offsetInCU: 0x17019, offset: 0x17019, size: 0x8, addend: 0x0, symName: __ZNSt3__117__compressed_pairIPdNS_9allocatorIdEEE5firstB7v160006Ev, symObjAddr: 0x6918, symBinAddr: 0x10000840C, symSize: 0x24 }
  - { offsetInCU: 0x1703F, offset: 0x1703F, size: 0x8, addend: 0x0, symName: __ZNSt3__122__compressed_pair_elemIPdLi0ELb0EE5__getB7v160006Ev, symObjAddr: 0x693C, symBinAddr: 0x100008430, symSize: 0x14 }
  - { offsetInCU: 0x1707E, offset: 0x1707E, size: 0x8, addend: 0x0, symName: __ZNSt3__16vectorIdNS_9allocatorIdEEE21_ConstructTransactionC1B7v160006ERS3_m, symObjAddr: 0x6950, symBinAddr: 0x100008444, symSize: 0x3C }
  - { offsetInCU: 0x170C6, offset: 0x170C6, size: 0x8, addend: 0x0, symName: __ZNSt3__116allocator_traitsINS_9allocatorIdEEE9constructB7v160006IdJdEvEEvRS2_PT_DpOT0_, symObjAddr: 0x698C, symBinAddr: 0x100008480, symSize: 0x34 }
  - { offsetInCU: 0x1711C, offset: 0x1711C, size: 0x8, addend: 0x0, symName: __ZNSt3__16vectorIdNS_9allocatorIdEEE21_ConstructTransactionD1B7v160006Ev, symObjAddr: 0x69C0, symBinAddr: 0x1000084B4, symSize: 0x2C }
  - { offsetInCU: 0x17146, offset: 0x17146, size: 0x8, addend: 0x0, symName: __ZNSt3__16vectorIdNS_9allocatorIdEEE21_ConstructTransactionC2B7v160006ERS3_m, symObjAddr: 0x69EC, symBinAddr: 0x1000084E0, symSize: 0x44 }
  - { offsetInCU: 0x1718E, offset: 0x1718E, size: 0x8, addend: 0x0, symName: __ZNSt3__19allocatorIdE9constructB7v160006IdJdEEEvPT_DpOT0_, symObjAddr: 0x6A30, symBinAddr: 0x100008524, symSize: 0x28 }
  - { offsetInCU: 0x171E4, offset: 0x171E4, size: 0x8, addend: 0x0, symName: __ZNSt3__16vectorIdNS_9allocatorIdEEE21_ConstructTransactionD2B7v160006Ev, symObjAddr: 0x6A58, symBinAddr: 0x10000854C, symSize: 0x20 }
  - { offsetInCU: 0x1720E, offset: 0x1720E, size: 0x8, addend: 0x0, symName: __ZNKSt3__16vectorIdNS_9allocatorIdEEE11__recommendB7v160006Em, symObjAddr: 0x6A78, symBinAddr: 0x10000856C, symSize: 0xB4 }
  - { offsetInCU: 0x17263, offset: 0x17263, size: 0x8, addend: 0x0, symName: __ZNSt3__114__split_bufferIdRNS_9allocatorIdEEEC1EmmS3_, symObjAddr: 0x6B2C, symBinAddr: 0x100008620, symSize: 0x44 }
  - { offsetInCU: 0x172B9, offset: 0x172B9, size: 0x8, addend: 0x0, symName: __ZNSt3__114__split_bufferIdRNS_9allocatorIdEEED1Ev, symObjAddr: 0x6C88, symBinAddr: 0x10000877C, symSize: 0x2C }
  - { offsetInCU: 0x172E5, offset: 0x172E5, size: 0x8, addend: 0x0, symName: __ZNKSt3__16vectorIdNS_9allocatorIdEEE8max_sizeEv, symObjAddr: 0x6CB4, symBinAddr: 0x1000087A8, symSize: 0x60 }
  - { offsetInCU: 0x1730D, offset: 0x1730D, size: 0x8, addend: 0x0, symName: __ZNKSt3__16vectorIdNS_9allocatorIdEEE20__throw_length_errorB7v160006Ev, symObjAddr: 0x6D14, symBinAddr: 0x100008808, symSize: 0x1C }
  - { offsetInCU: 0x1733D, offset: 0x1733D, size: 0x8, addend: 0x0, symName: __ZNSt3__116allocator_traitsINS_9allocatorIdEEE8max_sizeB7v160006IS2_vEEmRKS2_, symObjAddr: 0x6D5C, symBinAddr: 0x100008850, symSize: 0x24 }
  - { offsetInCU: 0x1736A, offset: 0x1736A, size: 0x8, addend: 0x0, symName: __ZNKSt3__16vectorIdNS_9allocatorIdEEE7__allocB7v160006Ev, symObjAddr: 0x6D80, symBinAddr: 0x100008874, symSize: 0x28 }
  - { offsetInCU: 0x17390, offset: 0x17390, size: 0x8, addend: 0x0, symName: __ZNKSt3__19allocatorIdE8max_sizeB7v160006Ev, symObjAddr: 0x6DA8, symBinAddr: 0x10000889C, symSize: 0x14 }
  - { offsetInCU: 0x173B6, offset: 0x173B6, size: 0x8, addend: 0x0, symName: __ZNKSt3__117__compressed_pairIPdNS_9allocatorIdEEE6secondB7v160006Ev, symObjAddr: 0x6DBC, symBinAddr: 0x1000088B0, symSize: 0x24 }
  - { offsetInCU: 0x173DC, offset: 0x173DC, size: 0x8, addend: 0x0, symName: __ZNKSt3__122__compressed_pair_elemINS_9allocatorIdEELi1ELb1EE5__getB7v160006Ev, symObjAddr: 0x6DE0, symBinAddr: 0x1000088D4, symSize: 0x14 }
  - { offsetInCU: 0x17402, offset: 0x17402, size: 0x8, addend: 0x0, symName: __ZNSt3__114__split_bufferIdRNS_9allocatorIdEEEC2EmmS3_, symObjAddr: 0x6E48, symBinAddr: 0x10000893C, symSize: 0xD4 }
  - { offsetInCU: 0x17475, offset: 0x17475, size: 0x8, addend: 0x0, symName: __ZNSt3__117__compressed_pairIPdRNS_9allocatorIdEEEC1B7v160006IDnS4_EEOT_OT0_, symObjAddr: 0x6F1C, symBinAddr: 0x100008A10, symSize: 0x3C }
  - { offsetInCU: 0x174CD, offset: 0x174CD, size: 0x8, addend: 0x0, symName: __ZNSt3__114__split_bufferIdRNS_9allocatorIdEEE7__allocB7v160006Ev, symObjAddr: 0x6F98, symBinAddr: 0x100008A8C, symSize: 0x28 }
  - { offsetInCU: 0x174F3, offset: 0x174F3, size: 0x8, addend: 0x0, symName: __ZNSt3__114__split_bufferIdRNS_9allocatorIdEEE9__end_capB7v160006Ev, symObjAddr: 0x6FC0, symBinAddr: 0x100008AB4, symSize: 0x28 }
  - { offsetInCU: 0x17519, offset: 0x17519, size: 0x8, addend: 0x0, symName: __ZNSt3__117__compressed_pairIPdRNS_9allocatorIdEEEC2B7v160006IDnS4_EEOT_OT0_, symObjAddr: 0x6FE8, symBinAddr: 0x100008ADC, symSize: 0x48 }
  - { offsetInCU: 0x17571, offset: 0x17571, size: 0x8, addend: 0x0, symName: __ZNSt3__122__compressed_pair_elemIRNS_9allocatorIdEELi1ELb0EEC2B7v160006IS3_vEEOT_, symObjAddr: 0x7030, symBinAddr: 0x100008B24, symSize: 0x20 }
  - { offsetInCU: 0x175B3, offset: 0x175B3, size: 0x8, addend: 0x0, symName: __ZNSt3__19allocatorIdE8allocateB7v160006Em, symObjAddr: 0x7050, symBinAddr: 0x100008B44, symSize: 0x58 }
  - { offsetInCU: 0x175E7, offset: 0x175E7, size: 0x8, addend: 0x0, symName: __ZNSt3__117__compressed_pairIPdRNS_9allocatorIdEEE6secondB7v160006Ev, symObjAddr: 0x70A8, symBinAddr: 0x100008B9C, symSize: 0x28 }
  - { offsetInCU: 0x1760D, offset: 0x1760D, size: 0x8, addend: 0x0, symName: __ZNSt3__122__compressed_pair_elemIRNS_9allocatorIdEELi1ELb0EE5__getB7v160006Ev, symObjAddr: 0x70D0, symBinAddr: 0x100008BC4, symSize: 0x18 }
  - { offsetInCU: 0x17633, offset: 0x17633, size: 0x8, addend: 0x0, symName: __ZNSt3__117__compressed_pairIPdRNS_9allocatorIdEEE5firstB7v160006Ev, symObjAddr: 0x70E8, symBinAddr: 0x100008BDC, symSize: 0x24 }
  - { offsetInCU: 0x17659, offset: 0x17659, size: 0x8, addend: 0x0, symName: __ZNSt3__116reverse_iteratorIPdEC1B7v160006ES1_, symObjAddr: 0x7184, symBinAddr: 0x100008C78, symSize: 0x34 }
  - { offsetInCU: 0x17691, offset: 0x17691, size: 0x8, addend: 0x0, symName: __ZNKSt3__116reverse_iteratorIPdE4baseB7v160006Ev, symObjAddr: 0x71B8, symBinAddr: 0x100008CAC, symSize: 0x18 }
  - { offsetInCU: 0x176B7, offset: 0x176B7, size: 0x8, addend: 0x0, symName: __ZNKSt3__16vectorIdNS_9allocatorIdEEE14__annotate_newB7v160006Em, symObjAddr: 0x720C, symBinAddr: 0x100008D00, symSize: 0xAC }
  - { offsetInCU: 0x1770F, offset: 0x1770F, size: 0x8, addend: 0x0, symName: __ZNKSt3__111__move_loopINS_17_ClassicAlgPolicyEEclB7v160006INS_16reverse_iteratorIPdEES6_S6_EENS_4pairIT_T1_EES8_T0_S9_, symObjAddr: 0x75B8, symBinAddr: 0x1000090AC, symSize: 0xA0 }
  - { offsetInCU: 0x1777A, offset: 0x1777A, size: 0x8, addend: 0x0, symName: __ZNSt3__18_IterOpsINS_17_ClassicAlgPolicyEE11__iter_moveB7v160006IRNS_16reverse_iteratorIPdEEEENS_9enable_ifIXsr12is_referenceIDTdeclsr3stdE7declvalIRT_EEEEE5valueEDTclsr3stdE4movedeclsr3stdE7declvalISA_EEEEE4typeEOS9_, symObjAddr: 0x77EC, symBinAddr: 0x1000092E0, symSize: 0x28 }
  - { offsetInCU: 0x177A5, offset: 0x177A5, size: 0x8, addend: 0x0, symName: __ZNKSt3__116reverse_iteratorIPdEdeB7v160006Ev, symObjAddr: 0x7814, symBinAddr: 0x100009308, symSize: 0x28 }
  - { offsetInCU: 0x177D9, offset: 0x177D9, size: 0x8, addend: 0x0, symName: __ZNSt3__116reverse_iteratorIPdEppB7v160006Ev, symObjAddr: 0x783C, symBinAddr: 0x100009330, symSize: 0x20 }
  - { offsetInCU: 0x177FF, offset: 0x177FF, size: 0x8, addend: 0x0, symName: __ZNSt3__18_IterOpsINS_17_ClassicAlgPolicyEE25__validate_iter_referenceB7v160006IRNS_16reverse_iteratorIPdEEEEvv, symObjAddr: 0x785C, symBinAddr: 0x100009350, symSize: 0x4 }
  - { offsetInCU: 0x1781D, offset: 0x1781D, size: 0x8, addend: 0x0, symName: __ZNSt3__118__unwrap_iter_implINS_16reverse_iteratorIPdEELb0EE8__unwrapB7v160006ES3_, symObjAddr: 0x7860, symBinAddr: 0x100009354, symSize: 0x24 }
  - { offsetInCU: 0x17845, offset: 0x17845, size: 0x8, addend: 0x0, symName: __ZNSt3__14pairINS_16reverse_iteratorIPdEES3_EC1B7v160006IS3_S3_LPv0EEEOT_OT0_, symObjAddr: 0x7884, symBinAddr: 0x100009378, symSize: 0x3C }
  - { offsetInCU: 0x178A3, offset: 0x178A3, size: 0x8, addend: 0x0, symName: __ZNSt3__14pairINS_16reverse_iteratorIPdEES3_EC2B7v160006IS3_S3_LPv0EEEOT_OT0_, symObjAddr: 0x78C0, symBinAddr: 0x1000093B4, symSize: 0x34 }
  - { offsetInCU: 0x17901, offset: 0x17901, size: 0x8, addend: 0x0, symName: __ZNSt3__118__unwrap_iter_implINS_16reverse_iteratorIPdEELb0EE8__rewrapB7v160006ES3_S3_, symObjAddr: 0x78F4, symBinAddr: 0x1000093E8, symSize: 0x2C }
  - { offsetInCU: 0x1792F, offset: 0x1792F, size: 0x8, addend: 0x0, symName: __ZNSt3__116reverse_iteratorIPdEC2B7v160006ES1_, symObjAddr: 0x7920, symBinAddr: 0x100009414, symSize: 0x28 }
  - { offsetInCU: 0x17967, offset: 0x17967, size: 0x8, addend: 0x0, symName: __ZNSt3__114__split_bufferIdRNS_9allocatorIdEEED2Ev, symObjAddr: 0x7948, symBinAddr: 0x10000943C, symSize: 0x8C }
  - { offsetInCU: 0x17993, offset: 0x17993, size: 0x8, addend: 0x0, symName: __ZNSt3__114__split_bufferIdRNS_9allocatorIdEEE5clearB7v160006Ev, symObjAddr: 0x79D4, symBinAddr: 0x1000094C8, symSize: 0x28 }
  - { offsetInCU: 0x179B9, offset: 0x179B9, size: 0x8, addend: 0x0, symName: __ZNKSt3__114__split_bufferIdRNS_9allocatorIdEEE8capacityB7v160006Ev, symObjAddr: 0x79FC, symBinAddr: 0x1000094F0, symSize: 0x40 }
  - { offsetInCU: 0x179DF, offset: 0x179DF, size: 0x8, addend: 0x0, symName: __ZNSt3__114__split_bufferIdRNS_9allocatorIdEEE17__destruct_at_endB7v160006EPd, symObjAddr: 0x7A3C, symBinAddr: 0x100009530, symSize: 0x2C }
  - { offsetInCU: 0x17A13, offset: 0x17A13, size: 0x8, addend: 0x0, symName: __ZNSt3__114__split_bufferIdRNS_9allocatorIdEEE17__destruct_at_endB7v160006EPdNS_17integral_constantIbLb0EEE, symObjAddr: 0x7A68, symBinAddr: 0x10000955C, symSize: 0x80 }
  - { offsetInCU: 0x17A54, offset: 0x17A54, size: 0x8, addend: 0x0, symName: __ZNKSt3__114__split_bufferIdRNS_9allocatorIdEEE9__end_capB7v160006Ev, symObjAddr: 0x7AE8, symBinAddr: 0x1000095DC, symSize: 0x28 }
  - { offsetInCU: 0x17A7A, offset: 0x17A7A, size: 0x8, addend: 0x0, symName: __ZNKSt3__117__compressed_pairIPdRNS_9allocatorIdEEE5firstB7v160006Ev, symObjAddr: 0x7B10, symBinAddr: 0x100009604, symSize: 0x24 }
  - { offsetInCU: 0x17AA0, offset: 0x17AA0, size: 0x8, addend: 0x0, symName: __ZNSt3__16vectorIdNS_9allocatorIdEEEC2B7v160006ESt16initializer_listIdE, symObjAddr: 0x7B34, symBinAddr: 0x100009628, symSize: 0x128 }
  - { offsetInCU: 0x17AF0, offset: 0x17AF0, size: 0x8, addend: 0x0, symName: __ZNKSt16initializer_listIdE4sizeB7v160006Ev, symObjAddr: 0x7C9C, symBinAddr: 0x100009790, symSize: 0x18 }
  - { offsetInCU: 0x17B16, offset: 0x17B16, size: 0x8, addend: 0x0, symName: __ZNSt3__16vectorIdNS_9allocatorIdEEE11__vallocateB7v160006Em, symObjAddr: 0x7CB4, symBinAddr: 0x1000097A8, symSize: 0xAC }
  - { offsetInCU: 0x17B5A, offset: 0x17B5A, size: 0x8, addend: 0x0, symName: __ZNSt3__16vectorIdNS_9allocatorIdEEE18__construct_at_endIPKdLi0EEEvT_S7_m, symObjAddr: 0x7D60, symBinAddr: 0x100009854, symSize: 0x8C }
  - { offsetInCU: 0x17BCD, offset: 0x17BCD, size: 0x8, addend: 0x0, symName: __ZNKSt16initializer_listIdE5beginB7v160006Ev, symObjAddr: 0x7DEC, symBinAddr: 0x1000098E0, symSize: 0x18 }
  - { offsetInCU: 0x17BF3, offset: 0x17BF3, size: 0x8, addend: 0x0, symName: __ZNKSt16initializer_listIdE3endB7v160006Ev, symObjAddr: 0x7E04, symBinAddr: 0x1000098F8, symSize: 0x20 }
  - { offsetInCU: 0x17C19, offset: 0x17C19, size: 0x8, addend: 0x0, symName: __ZNSt3__128__exception_guard_exceptionsINS_6vectorIdNS_9allocatorIdEEE16__destroy_vectorEE10__completeB7v160006Ev, symObjAddr: 0x7E24, symBinAddr: 0x100009918, symSize: 0x1C }
  - { offsetInCU: 0x17C3F, offset: 0x17C3F, size: 0x8, addend: 0x0, symName: __ZNSt3__128__exception_guard_exceptionsINS_6vectorIdNS_9allocatorIdEEE16__destroy_vectorEED1B7v160006Ev, symObjAddr: 0x7E40, symBinAddr: 0x100009934, symSize: 0x2C }
  - { offsetInCU: 0x17C69, offset: 0x17C69, size: 0x8, addend: 0x0, symName: __ZNSt3__128__exception_guard_exceptionsINS_6vectorIdNS_9allocatorIdEEE16__destroy_vectorEEC1B7v160006ES5_, symObjAddr: 0x7E6C, symBinAddr: 0x100009960, symSize: 0x34 }
  - { offsetInCU: 0x17CA1, offset: 0x17CA1, size: 0x8, addend: 0x0, symName: __ZNSt3__128__exception_guard_exceptionsINS_6vectorIdNS_9allocatorIdEEE16__destroy_vectorEEC2B7v160006ES5_, symObjAddr: 0x7EA0, symBinAddr: 0x100009994, symSize: 0x24 }
  - { offsetInCU: 0x17CFC, offset: 0x17CFC, size: 0x8, addend: 0x0, symName: __ZNKSt3__114__copy_trivialclB7v160006IKddLi0EEENS_4pairIPT_PT0_EES5_S5_S7_, symObjAddr: 0x80D8, symBinAddr: 0x100009BCC, symSize: 0x48 }
  - { offsetInCU: 0x17D82, offset: 0x17D82, size: 0x8, addend: 0x0, symName: __ZNSt3__14pairIPKdS2_EC1B7v160006IS2_S2_LPv0EEEOT_OT0_, symObjAddr: 0x8240, symBinAddr: 0x100009D34, symSize: 0x3C }
  - { offsetInCU: 0x17DE0, offset: 0x17DE0, size: 0x8, addend: 0x0, symName: __ZNSt3__14pairIPKdS2_EC2B7v160006IS2_S2_LPv0EEEOT_OT0_, symObjAddr: 0x827C, symBinAddr: 0x100009D70, symSize: 0x34 }
  - { offsetInCU: 0x17E3E, offset: 0x17E3E, size: 0x8, addend: 0x0, symName: __ZNSt3__118__unwrap_iter_implIPKdLb1EE8__unwrapB7v160006ES2_, symObjAddr: 0x82B0, symBinAddr: 0x100009DA4, symSize: 0x24 }
  - { offsetInCU: 0x17E6A, offset: 0x17E6A, size: 0x8, addend: 0x0, symName: __ZNSt3__14pairIPKdPdEC1B7v160006IRS2_S3_LPv0EEEOT_OT0_, symObjAddr: 0x83A4, symBinAddr: 0x100009E98, symSize: 0x3C }
  - { offsetInCU: 0x17EC8, offset: 0x17EC8, size: 0x8, addend: 0x0, symName: __ZNSt3__14pairIPKdPdEC2B7v160006IRS2_S3_LPv0EEEOT_OT0_, symObjAddr: 0x83E0, symBinAddr: 0x100009ED4, symSize: 0x34 }
  - { offsetInCU: 0x17F26, offset: 0x17F26, size: 0x8, addend: 0x0, symName: __ZNSt3__118__unwrap_iter_implIPdLb1EE8__unwrapB7v160006ES1_, symObjAddr: 0x8414, symBinAddr: 0x100009F08, symSize: 0x24 }
  - { offsetInCU: 0x17F48, offset: 0x17F48, size: 0x8, addend: 0x0, symName: __ZNSt3__14pairIPKdPdEC1B7v160006IS2_S3_LPv0EEEOT_OT0_, symObjAddr: 0x8438, symBinAddr: 0x100009F2C, symSize: 0x3C }
  - { offsetInCU: 0x17FA6, offset: 0x17FA6, size: 0x8, addend: 0x0, symName: __ZNSt3__14pairIPKdPdEC2B7v160006IS2_S3_LPv0EEEOT_OT0_, symObjAddr: 0x8474, symBinAddr: 0x100009F68, symSize: 0x34 }
  - { offsetInCU: 0x18004, offset: 0x18004, size: 0x8, addend: 0x0, symName: __ZNSt3__118__unwrap_iter_implIPKdLb1EE8__rewrapB7v160006ES2_S2_, symObjAddr: 0x84E4, symBinAddr: 0x100009FD8, symSize: 0x50 }
  - { offsetInCU: 0x18034, offset: 0x18034, size: 0x8, addend: 0x0, symName: __ZNSt3__118__unwrap_iter_implIPdLb1EE8__rewrapB7v160006ES1_S1_, symObjAddr: 0x8534, symBinAddr: 0x10000A028, symSize: 0x50 }
  - { offsetInCU: 0x18064, offset: 0x18064, size: 0x8, addend: 0x0, symName: __ZNSt3__128__exception_guard_exceptionsINS_6vectorIdNS_9allocatorIdEEE16__destroy_vectorEED2B7v160006Ev, symObjAddr: 0x8584, symBinAddr: 0x10000A078, symSize: 0x50 }
  - { offsetInCU: 0x1808E, offset: 0x1808E, size: 0x8, addend: 0x0, symName: __ZNSt3__16vectorINS0_IiNS_9allocatorIiEEEENS1_IS3_EEEC2B7v160006Ev, symObjAddr: 0x85D4, symBinAddr: 0x10000A0C8, symSize: 0x58 }
  - { offsetInCU: 0x180B8, offset: 0x180B8, size: 0x8, addend: 0x0, symName: __ZNSt3__117__compressed_pairIPNS_6vectorIiNS_9allocatorIiEEEENS2_IS4_EEEC1B7v160006IDnNS_18__default_init_tagEEEOT_OT0_, symObjAddr: 0x862C, symBinAddr: 0x10000A120, symSize: 0x3C }
  - { offsetInCU: 0x18110, offset: 0x18110, size: 0x8, addend: 0x0, symName: __ZNSt3__117__compressed_pairIPNS_6vectorIiNS_9allocatorIiEEEENS2_IS4_EEEC2B7v160006IDnNS_18__default_init_tagEEEOT_OT0_, symObjAddr: 0x8678, symBinAddr: 0x10000A16C, symSize: 0x40 }
  - { offsetInCU: 0x18168, offset: 0x18168, size: 0x8, addend: 0x0, symName: __ZNSt3__122__compressed_pair_elemIPNS_6vectorIiNS_9allocatorIiEEEELi0ELb0EEC2B7v160006IDnvEEOT_, symObjAddr: 0x86B8, symBinAddr: 0x10000A1AC, symSize: 0x1C }
  - { offsetInCU: 0x181AA, offset: 0x181AA, size: 0x8, addend: 0x0, symName: __ZNSt3__122__compressed_pair_elemINS_9allocatorINS_6vectorIiNS1_IiEEEEEELi1ELb1EEC2B7v160006ENS_18__default_init_tagE, symObjAddr: 0x86D4, symBinAddr: 0x10000A1C8, symSize: 0x2C }
  - { offsetInCU: 0x181DF, offset: 0x181DF, size: 0x8, addend: 0x0, symName: __ZNSt3__19allocatorINS_6vectorIiNS0_IiEEEEEC2B7v160006Ev, symObjAddr: 0x8700, symBinAddr: 0x10000A1F4, symSize: 0x2C }
  - { offsetInCU: 0x18209, offset: 0x18209, size: 0x8, addend: 0x0, symName: __ZNSt3__116__non_trivial_ifILb1ENS_9allocatorINS_6vectorIiNS1_IiEEEEEEEC2B7v160006Ev, symObjAddr: 0x872C, symBinAddr: 0x10000A220, symSize: 0x14 }
  - { offsetInCU: 0x18233, offset: 0x18233, size: 0x8, addend: 0x0, symName: __ZNSt3__16vectorINS0_IiNS_9allocatorIiEEEENS1_IS3_EEED2B7v160006Ev, symObjAddr: 0x8740, symBinAddr: 0x10000A234, symSize: 0x44 }
  - { offsetInCU: 0x1825D, offset: 0x1825D, size: 0x8, addend: 0x0, symName: __ZNSt3__16vectorINS0_IiNS_9allocatorIiEEEENS1_IS3_EEE16__destroy_vectorC1ERS5_, symObjAddr: 0x8784, symBinAddr: 0x10000A278, symSize: 0x34 }
  - { offsetInCU: 0x18296, offset: 0x18296, size: 0x8, addend: 0x0, symName: __ZNSt3__16vectorINS0_IiNS_9allocatorIiEEEENS1_IS3_EEE16__destroy_vectorclB7v160006Ev, symObjAddr: 0x87B8, symBinAddr: 0x10000A2AC, symSize: 0x9C }
  - { offsetInCU: 0x182BC, offset: 0x182BC, size: 0x8, addend: 0x0, symName: __ZNSt3__16vectorINS0_IiNS_9allocatorIiEEEENS1_IS3_EEE16__destroy_vectorC2ERS5_, symObjAddr: 0x8854, symBinAddr: 0x10000A348, symSize: 0x20 }
  - { offsetInCU: 0x182F5, offset: 0x182F5, size: 0x8, addend: 0x0, symName: __ZNKSt3__16vectorINS0_IiNS_9allocatorIiEEEENS1_IS3_EEE17__annotate_deleteB7v160006Ev, symObjAddr: 0x8874, symBinAddr: 0x10000A368, symSize: 0xD4 }
  - { offsetInCU: 0x1831B, offset: 0x1831B, size: 0x8, addend: 0x0, symName: __ZNSt3__16vectorINS0_IiNS_9allocatorIiEEEENS1_IS3_EEE7__clearB7v160006Ev, symObjAddr: 0x8958, symBinAddr: 0x10000A44C, symSize: 0x28 }
  - { offsetInCU: 0x18341, offset: 0x18341, size: 0x8, addend: 0x0, symName: __ZNSt3__116allocator_traitsINS_9allocatorINS_6vectorIiNS1_IiEEEEEEE10deallocateB7v160006ERS5_PS4_m, symObjAddr: 0x8980, symBinAddr: 0x10000A474, symSize: 0x34 }
  - { offsetInCU: 0x18382, offset: 0x18382, size: 0x8, addend: 0x0, symName: __ZNSt3__16vectorINS0_IiNS_9allocatorIiEEEENS1_IS3_EEE7__allocB7v160006Ev, symObjAddr: 0x89B4, symBinAddr: 0x10000A4A8, symSize: 0x28 }
  - { offsetInCU: 0x183A8, offset: 0x183A8, size: 0x8, addend: 0x0, symName: __ZNKSt3__16vectorINS0_IiNS_9allocatorIiEEEENS1_IS3_EEE8capacityB7v160006Ev, symObjAddr: 0x89DC, symBinAddr: 0x10000A4D0, symSize: 0x40 }
  - { offsetInCU: 0x183CE, offset: 0x183CE, size: 0x8, addend: 0x0, symName: __ZNKSt3__16vectorINS0_IiNS_9allocatorIiEEEENS1_IS3_EEE31__annotate_contiguous_containerB7v160006EPKvS7_S7_S7_, symObjAddr: 0x8A1C, symBinAddr: 0x10000A510, symSize: 0x20 }
  - { offsetInCU: 0x18420, offset: 0x18420, size: 0x8, addend: 0x0, symName: __ZNKSt3__16vectorINS0_IiNS_9allocatorIiEEEENS1_IS3_EEE4dataB7v160006Ev, symObjAddr: 0x8A3C, symBinAddr: 0x10000A530, symSize: 0x28 }
  - { offsetInCU: 0x18446, offset: 0x18446, size: 0x8, addend: 0x0, symName: __ZNSt3__16vectorINS0_IiNS_9allocatorIiEEEENS1_IS3_EEE22__base_destruct_at_endB7v160006EPS3_, symObjAddr: 0x8A78, symBinAddr: 0x10000A56C, symSize: 0x8C }
  - { offsetInCU: 0x1848A, offset: 0x1848A, size: 0x8, addend: 0x0, symName: __ZNSt3__116allocator_traitsINS_9allocatorINS_6vectorIiNS1_IiEEEEEEE7destroyB7v160006IS4_vEEvRS5_PT_, symObjAddr: 0x8B04, symBinAddr: 0x10000A5F8, symSize: 0x2C }
  - { offsetInCU: 0x184C6, offset: 0x184C6, size: 0x8, addend: 0x0, symName: __ZNSt3__19allocatorINS_6vectorIiNS0_IiEEEEE7destroyB7v160006EPS3_, symObjAddr: 0x8B30, symBinAddr: 0x10000A624, symSize: 0x28 }
  - { offsetInCU: 0x184FA, offset: 0x184FA, size: 0x8, addend: 0x0, symName: __ZNSt3__19allocatorINS_6vectorIiNS0_IiEEEEE10deallocateB7v160006EPS3_m, symObjAddr: 0x8B58, symBinAddr: 0x10000A64C, symSize: 0x44 }
  - { offsetInCU: 0x1853C, offset: 0x1853C, size: 0x8, addend: 0x0, symName: __ZNSt3__117__compressed_pairIPNS_6vectorIiNS_9allocatorIiEEEENS2_IS4_EEE6secondB7v160006Ev, symObjAddr: 0x8B9C, symBinAddr: 0x10000A690, symSize: 0x24 }
  - { offsetInCU: 0x18562, offset: 0x18562, size: 0x8, addend: 0x0, symName: __ZNSt3__122__compressed_pair_elemINS_9allocatorINS_6vectorIiNS1_IiEEEEEELi1ELb1EE5__getB7v160006Ev, symObjAddr: 0x8BC0, symBinAddr: 0x10000A6B4, symSize: 0x14 }
  - { offsetInCU: 0x18588, offset: 0x18588, size: 0x8, addend: 0x0, symName: __ZNKSt3__16vectorINS0_IiNS_9allocatorIiEEEENS1_IS3_EEE9__end_capB7v160006Ev, symObjAddr: 0x8BD4, symBinAddr: 0x10000A6C8, symSize: 0x28 }
  - { offsetInCU: 0x185AE, offset: 0x185AE, size: 0x8, addend: 0x0, symName: __ZNKSt3__117__compressed_pairIPNS_6vectorIiNS_9allocatorIiEEEENS2_IS4_EEE5firstB7v160006Ev, symObjAddr: 0x8BFC, symBinAddr: 0x10000A6F0, symSize: 0x24 }
  - { offsetInCU: 0x185D4, offset: 0x185D4, size: 0x8, addend: 0x0, symName: __ZNKSt3__122__compressed_pair_elemIPNS_6vectorIiNS_9allocatorIiEEEELi0ELb0EE5__getB7v160006Ev, symObjAddr: 0x8C20, symBinAddr: 0x10000A714, symSize: 0x14 }
  - { offsetInCU: 0x185FA, offset: 0x185FA, size: 0x8, addend: 0x0, symName: __ZNSt3__16vectorIiNS_9allocatorIiEEEC2B7v160006Ev, symObjAddr: 0x8C34, symBinAddr: 0x10000A728, symSize: 0x54 }
  - { offsetInCU: 0x18624, offset: 0x18624, size: 0x8, addend: 0x0, symName: __ZNSt3__117__compressed_pairIPiNS_9allocatorIiEEEC1B7v160006IDnNS_18__default_init_tagEEEOT_OT0_, symObjAddr: 0x8C88, symBinAddr: 0x10000A77C, symSize: 0x3C }
  - { offsetInCU: 0x1867C, offset: 0x1867C, size: 0x8, addend: 0x0, symName: __ZNSt3__117__compressed_pairIPiNS_9allocatorIiEEEC2B7v160006IDnNS_18__default_init_tagEEEOT_OT0_, symObjAddr: 0x8CC4, symBinAddr: 0x10000A7B8, symSize: 0x40 }
  - { offsetInCU: 0x186D4, offset: 0x186D4, size: 0x8, addend: 0x0, symName: __ZNSt3__122__compressed_pair_elemINS_9allocatorIiEELi1ELb1EEC2B7v160006ENS_18__default_init_tagE, symObjAddr: 0x8D04, symBinAddr: 0x10000A7F8, symSize: 0x2C }
  - { offsetInCU: 0x18709, offset: 0x18709, size: 0x8, addend: 0x0, symName: __ZNSt3__19allocatorIiEC2B7v160006Ev, symObjAddr: 0x8D30, symBinAddr: 0x10000A824, symSize: 0x2C }
  - { offsetInCU: 0x18733, offset: 0x18733, size: 0x8, addend: 0x0, symName: __ZNSt3__116__non_trivial_ifILb1ENS_9allocatorIiEEEC2B7v160006Ev, symObjAddr: 0x8D5C, symBinAddr: 0x10000A850, symSize: 0x14 }
  - { offsetInCU: 0x1875D, offset: 0x1875D, size: 0x8, addend: 0x0, symName: __ZNKSt3__16vectorIiNS_9allocatorIiEEE17__annotate_shrinkB7v160006Em, symObjAddr: 0x8D70, symBinAddr: 0x10000A864, symSize: 0xB4 }
  - { offsetInCU: 0x18792, offset: 0x18792, size: 0x8, addend: 0x0, symName: __ZNSt3__16vectorIiNS_9allocatorIiEEE22__construct_one_at_endB7v160006IJRKiEEEvDpOT_, symObjAddr: 0x8E34, symBinAddr: 0x10000A928, symSize: 0x90 }
  - { offsetInCU: 0x187E1, offset: 0x187E1, size: 0x8, addend: 0x0, symName: __ZNSt3__16vectorIiNS_9allocatorIiEEE21__push_back_slow_pathIRKiEEvOT_, symObjAddr: 0x8EC4, symBinAddr: 0x10000A9B8, symSize: 0xD8 }
  - { offsetInCU: 0x1883F, offset: 0x1883F, size: 0x8, addend: 0x0, symName: __ZNSt3__116allocator_traitsINS_9allocatorIiEEE9constructB7v160006IiJRKiEvEEvRS2_PT_DpOT0_, symObjAddr: 0x8F9C, symBinAddr: 0x10000AA90, symSize: 0x34 }
  - { offsetInCU: 0x18895, offset: 0x18895, size: 0x8, addend: 0x0, symName: __ZNSt3__19allocatorIiE9constructB7v160006IiJRKiEEEvPT_DpOT0_, symObjAddr: 0x8FD0, symBinAddr: 0x10000AAC4, symSize: 0x28 }
  - { offsetInCU: 0x188EB, offset: 0x188EB, size: 0x8, addend: 0x0, symName: __ZNKSt3__16vectorIiNS_9allocatorIiEEE11__recommendB7v160006Em, symObjAddr: 0x8FF8, symBinAddr: 0x10000AAEC, symSize: 0xB4 }
  - { offsetInCU: 0x18940, offset: 0x18940, size: 0x8, addend: 0x0, symName: __ZNSt3__114__split_bufferIiRNS_9allocatorIiEEEC1EmmS3_, symObjAddr: 0x90AC, symBinAddr: 0x10000ABA0, symSize: 0x44 }
  - { offsetInCU: 0x18996, offset: 0x18996, size: 0x8, addend: 0x0, symName: __ZNSt3__114__split_bufferIiRNS_9allocatorIiEEED1Ev, symObjAddr: 0x9208, symBinAddr: 0x10000ACFC, symSize: 0x2C }
  - { offsetInCU: 0x189C2, offset: 0x189C2, size: 0x8, addend: 0x0, symName: __ZNSt3__114__split_bufferIiRNS_9allocatorIiEEEC2EmmS3_, symObjAddr: 0x9234, symBinAddr: 0x10000AD28, symSize: 0xD4 }
  - { offsetInCU: 0x18A35, offset: 0x18A35, size: 0x8, addend: 0x0, symName: __ZNSt3__117__compressed_pairIPiRNS_9allocatorIiEEEC1B7v160006IDnS4_EEOT_OT0_, symObjAddr: 0x9308, symBinAddr: 0x10000ADFC, symSize: 0x3C }
  - { offsetInCU: 0x18A8D, offset: 0x18A8D, size: 0x8, addend: 0x0, symName: __ZNSt3__114__split_bufferIiRNS_9allocatorIiEEE7__allocB7v160006Ev, symObjAddr: 0x9344, symBinAddr: 0x10000AE38, symSize: 0x28 }
  - { offsetInCU: 0x18AB3, offset: 0x18AB3, size: 0x8, addend: 0x0, symName: __ZNSt3__114__split_bufferIiRNS_9allocatorIiEEE9__end_capB7v160006Ev, symObjAddr: 0x936C, symBinAddr: 0x10000AE60, symSize: 0x28 }
  - { offsetInCU: 0x18AD9, offset: 0x18AD9, size: 0x8, addend: 0x0, symName: __ZNSt3__117__compressed_pairIPiRNS_9allocatorIiEEEC2B7v160006IDnS4_EEOT_OT0_, symObjAddr: 0x9394, symBinAddr: 0x10000AE88, symSize: 0x48 }
  - { offsetInCU: 0x18B31, offset: 0x18B31, size: 0x8, addend: 0x0, symName: __ZNSt3__122__compressed_pair_elemIRNS_9allocatorIiEELi1ELb0EEC2B7v160006IS3_vEEOT_, symObjAddr: 0x93DC, symBinAddr: 0x10000AED0, symSize: 0x20 }
  - { offsetInCU: 0x18B73, offset: 0x18B73, size: 0x8, addend: 0x0, symName: __ZNSt3__117__compressed_pairIPiRNS_9allocatorIiEEE6secondB7v160006Ev, symObjAddr: 0x93FC, symBinAddr: 0x10000AEF0, symSize: 0x28 }
  - { offsetInCU: 0x18B99, offset: 0x18B99, size: 0x8, addend: 0x0, symName: __ZNSt3__122__compressed_pair_elemIRNS_9allocatorIiEELi1ELb0EE5__getB7v160006Ev, symObjAddr: 0x9424, symBinAddr: 0x10000AF18, symSize: 0x18 }
  - { offsetInCU: 0x18BBF, offset: 0x18BBF, size: 0x8, addend: 0x0, symName: __ZNSt3__117__compressed_pairIPiRNS_9allocatorIiEEE5firstB7v160006Ev, symObjAddr: 0x943C, symBinAddr: 0x10000AF30, symSize: 0x24 }
  - { offsetInCU: 0x18BFE, offset: 0x18BFE, size: 0x8, addend: 0x0, symName: __ZNKSt3__111__move_loopINS_17_ClassicAlgPolicyEEclB7v160006INS_16reverse_iteratorIPiEES6_S6_EENS_4pairIT_T1_EES8_T0_S9_, symObjAddr: 0x9804, symBinAddr: 0x10000B2F8, symSize: 0xA0 }
  - { offsetInCU: 0x18C69, offset: 0x18C69, size: 0x8, addend: 0x0, symName: __ZNSt3__18_IterOpsINS_17_ClassicAlgPolicyEE11__iter_moveB7v160006IRNS_16reverse_iteratorIPiEEEENS_9enable_ifIXsr12is_referenceIDTdeclsr3stdE7declvalIRT_EEEEE5valueEDTclsr3stdE4movedeclsr3stdE7declvalISA_EEEEE4typeEOS9_, symObjAddr: 0x99F0, symBinAddr: 0x10000B4E4, symSize: 0x28 }
  - { offsetInCU: 0x18C94, offset: 0x18C94, size: 0x8, addend: 0x0, symName: __ZNSt3__18_IterOpsINS_17_ClassicAlgPolicyEE25__validate_iter_referenceB7v160006IRNS_16reverse_iteratorIPiEEEEvv, symObjAddr: 0x9A18, symBinAddr: 0x10000B50C, symSize: 0x4 }
  - { offsetInCU: 0x18CB2, offset: 0x18CB2, size: 0x8, addend: 0x0, symName: __ZNSt3__118__unwrap_iter_implINS_16reverse_iteratorIPiEELb0EE8__unwrapB7v160006ES3_, symObjAddr: 0x9A1C, symBinAddr: 0x10000B510, symSize: 0x24 }
  - { offsetInCU: 0x18CDA, offset: 0x18CDA, size: 0x8, addend: 0x0, symName: __ZNSt3__14pairINS_16reverse_iteratorIPiEES3_EC1B7v160006IS3_S3_LPv0EEEOT_OT0_, symObjAddr: 0x9A40, symBinAddr: 0x10000B534, symSize: 0x3C }
  - { offsetInCU: 0x18D38, offset: 0x18D38, size: 0x8, addend: 0x0, symName: __ZNSt3__14pairINS_16reverse_iteratorIPiEES3_EC2B7v160006IS3_S3_LPv0EEEOT_OT0_, symObjAddr: 0x9A7C, symBinAddr: 0x10000B570, symSize: 0x34 }
  - { offsetInCU: 0x18D96, offset: 0x18D96, size: 0x8, addend: 0x0, symName: __ZNSt3__118__unwrap_iter_implINS_16reverse_iteratorIPiEELb0EE8__rewrapB7v160006ES3_S3_, symObjAddr: 0x9AB0, symBinAddr: 0x10000B5A4, symSize: 0x2C }
  - { offsetInCU: 0x18DC4, offset: 0x18DC4, size: 0x8, addend: 0x0, symName: __ZNSt3__114__split_bufferIiRNS_9allocatorIiEEED2Ev, symObjAddr: 0x9ADC, symBinAddr: 0x10000B5D0, symSize: 0x8C }
  - { offsetInCU: 0x18DF0, offset: 0x18DF0, size: 0x8, addend: 0x0, symName: __ZNSt3__114__split_bufferIiRNS_9allocatorIiEEE5clearB7v160006Ev, symObjAddr: 0x9B68, symBinAddr: 0x10000B65C, symSize: 0x28 }
  - { offsetInCU: 0x18E16, offset: 0x18E16, size: 0x8, addend: 0x0, symName: __ZNKSt3__114__split_bufferIiRNS_9allocatorIiEEE8capacityB7v160006Ev, symObjAddr: 0x9B90, symBinAddr: 0x10000B684, symSize: 0x40 }
  - { offsetInCU: 0x18E3C, offset: 0x18E3C, size: 0x8, addend: 0x0, symName: __ZNSt3__114__split_bufferIiRNS_9allocatorIiEEE17__destruct_at_endB7v160006EPi, symObjAddr: 0x9BD0, symBinAddr: 0x10000B6C4, symSize: 0x2C }
  - { offsetInCU: 0x18E70, offset: 0x18E70, size: 0x8, addend: 0x0, symName: __ZNSt3__114__split_bufferIiRNS_9allocatorIiEEE17__destruct_at_endB7v160006EPiNS_17integral_constantIbLb0EEE, symObjAddr: 0x9BFC, symBinAddr: 0x10000B6F0, symSize: 0x80 }
  - { offsetInCU: 0x18EB1, offset: 0x18EB1, size: 0x8, addend: 0x0, symName: __ZNKSt3__114__split_bufferIiRNS_9allocatorIiEEE9__end_capB7v160006Ev, symObjAddr: 0x9C7C, symBinAddr: 0x10000B770, symSize: 0x28 }
  - { offsetInCU: 0x18ED7, offset: 0x18ED7, size: 0x8, addend: 0x0, symName: __ZNKSt3__117__compressed_pairIPiRNS_9allocatorIiEEE5firstB7v160006Ev, symObjAddr: 0x9CA4, symBinAddr: 0x10000B798, symSize: 0x24 }
  - { offsetInCU: 0x18EFD, offset: 0x18EFD, size: 0x8, addend: 0x0, symName: __ZNSt3__16vectorIiNS_9allocatorIiEEE22__construct_one_at_endB7v160006IJiEEEvDpOT_, symObjAddr: 0x9CC8, symBinAddr: 0x10000B7BC, symSize: 0x90 }
  - { offsetInCU: 0x18F4C, offset: 0x18F4C, size: 0x8, addend: 0x0, symName: __ZNSt3__16vectorIiNS_9allocatorIiEEE21__push_back_slow_pathIiEEvOT_, symObjAddr: 0x9D58, symBinAddr: 0x10000B84C, symSize: 0xD8 }
  - { offsetInCU: 0x18FAA, offset: 0x18FAA, size: 0x8, addend: 0x0, symName: __ZNSt3__116allocator_traitsINS_9allocatorIiEEE9constructB7v160006IiJiEvEEvRS2_PT_DpOT0_, symObjAddr: 0x9E30, symBinAddr: 0x10000B924, symSize: 0x34 }
  - { offsetInCU: 0x19000, offset: 0x19000, size: 0x8, addend: 0x0, symName: __ZNSt3__19allocatorIiE9constructB7v160006IiJiEEEvPT_DpOT0_, symObjAddr: 0x9E64, symBinAddr: 0x10000B958, symSize: 0x28 }
  - { offsetInCU: 0x19056, offset: 0x19056, size: 0x8, addend: 0x0, symName: __ZNSt3__16vectorINS0_IiNS_9allocatorIiEEEENS1_IS3_EEE9__end_capB7v160006Ev, symObjAddr: 0x9E8C, symBinAddr: 0x10000B980, symSize: 0x28 }
  - { offsetInCU: 0x1907C, offset: 0x1907C, size: 0x8, addend: 0x0, symName: __ZNSt3__16vectorINS0_IiNS_9allocatorIiEEEENS1_IS3_EEE22__construct_one_at_endB7v160006IJRKS3_EEEvDpOT_, symObjAddr: 0x9EB4, symBinAddr: 0x10000B9A8, symSize: 0x90 }
  - { offsetInCU: 0x190CB, offset: 0x190CB, size: 0x8, addend: 0x0, symName: __ZNSt3__16vectorINS0_IiNS_9allocatorIiEEEENS1_IS3_EEE21__push_back_slow_pathIRKS3_EEvOT_, symObjAddr: 0x9F44, symBinAddr: 0x10000BA38, symSize: 0xD8 }
  - { offsetInCU: 0x19129, offset: 0x19129, size: 0x8, addend: 0x0, symName: __ZNSt3__117__compressed_pairIPNS_6vectorIiNS_9allocatorIiEEEENS2_IS4_EEE5firstB7v160006Ev, symObjAddr: 0xA01C, symBinAddr: 0x10000BB10, symSize: 0x24 }
  - { offsetInCU: 0x1914F, offset: 0x1914F, size: 0x8, addend: 0x0, symName: __ZNSt3__122__compressed_pair_elemIPNS_6vectorIiNS_9allocatorIiEEEELi0ELb0EE5__getB7v160006Ev, symObjAddr: 0xA040, symBinAddr: 0x10000BB34, symSize: 0x14 }
  - { offsetInCU: 0x1918E, offset: 0x1918E, size: 0x8, addend: 0x0, symName: __ZNSt3__16vectorINS0_IiNS_9allocatorIiEEEENS1_IS3_EEE21_ConstructTransactionC1B7v160006ERS5_m, symObjAddr: 0xA054, symBinAddr: 0x10000BB48, symSize: 0x3C }
  - { offsetInCU: 0x191D6, offset: 0x191D6, size: 0x8, addend: 0x0, symName: __ZNSt3__116allocator_traitsINS_9allocatorINS_6vectorIiNS1_IiEEEEEEE9constructB7v160006IS4_JRKS4_EvEEvRS5_PT_DpOT0_, symObjAddr: 0xA090, symBinAddr: 0x10000BB84, symSize: 0x34 }
  - { offsetInCU: 0x1922C, offset: 0x1922C, size: 0x8, addend: 0x0, symName: __ZNSt3__16vectorINS0_IiNS_9allocatorIiEEEENS1_IS3_EEE21_ConstructTransactionD1B7v160006Ev, symObjAddr: 0xA0C4, symBinAddr: 0x10000BBB8, symSize: 0x2C }
  - { offsetInCU: 0x19256, offset: 0x19256, size: 0x8, addend: 0x0, symName: __ZNSt3__16vectorINS0_IiNS_9allocatorIiEEEENS1_IS3_EEE21_ConstructTransactionC2B7v160006ERS5_m, symObjAddr: 0xA0F0, symBinAddr: 0x10000BBE4, symSize: 0x4C }
  - { offsetInCU: 0x1929E, offset: 0x1929E, size: 0x8, addend: 0x0, symName: __ZNSt3__19allocatorINS_6vectorIiNS0_IiEEEEE9constructB7v160006IS3_JRKS3_EEEvPT_DpOT0_, symObjAddr: 0xA13C, symBinAddr: 0x10000BC30, symSize: 0x30 }
  - { offsetInCU: 0x192F4, offset: 0x192F4, size: 0x8, addend: 0x0, symName: __ZNSt3__16vectorINS0_IiNS_9allocatorIiEEEENS1_IS3_EEE21_ConstructTransactionD2B7v160006Ev, symObjAddr: 0xA16C, symBinAddr: 0x10000BC60, symSize: 0x20 }
  - { offsetInCU: 0x1931E, offset: 0x1931E, size: 0x8, addend: 0x0, symName: __ZNKSt3__16vectorINS0_IiNS_9allocatorIiEEEENS1_IS3_EEE11__recommendB7v160006Em, symObjAddr: 0xA18C, symBinAddr: 0x10000BC80, symSize: 0xB4 }
  - { offsetInCU: 0x19373, offset: 0x19373, size: 0x8, addend: 0x0, symName: __ZNSt3__114__split_bufferINS_6vectorIiNS_9allocatorIiEEEERNS2_IS4_EEEC1EmmS6_, symObjAddr: 0xA240, symBinAddr: 0x10000BD34, symSize: 0x44 }
  - { offsetInCU: 0x193C9, offset: 0x193C9, size: 0x8, addend: 0x0, symName: __ZNSt3__114__split_bufferINS_6vectorIiNS_9allocatorIiEEEERNS2_IS4_EEED1Ev, symObjAddr: 0xA39C, symBinAddr: 0x10000BE90, symSize: 0x2C }
  - { offsetInCU: 0x193F5, offset: 0x193F5, size: 0x8, addend: 0x0, symName: __ZNKSt3__16vectorINS0_IiNS_9allocatorIiEEEENS1_IS3_EEE8max_sizeEv, symObjAddr: 0xA3C8, symBinAddr: 0x10000BEBC, symSize: 0x60 }
  - { offsetInCU: 0x1941D, offset: 0x1941D, size: 0x8, addend: 0x0, symName: __ZNKSt3__16vectorINS0_IiNS_9allocatorIiEEEENS1_IS3_EEE20__throw_length_errorB7v160006Ev, symObjAddr: 0xA428, symBinAddr: 0x10000BF1C, symSize: 0x1C }
  - { offsetInCU: 0x1944D, offset: 0x1944D, size: 0x8, addend: 0x0, symName: __ZNSt3__116allocator_traitsINS_9allocatorINS_6vectorIiNS1_IiEEEEEEE8max_sizeB7v160006IS5_vEEmRKS5_, symObjAddr: 0xA444, symBinAddr: 0x10000BF38, symSize: 0x24 }
  - { offsetInCU: 0x1947A, offset: 0x1947A, size: 0x8, addend: 0x0, symName: __ZNKSt3__16vectorINS0_IiNS_9allocatorIiEEEENS1_IS3_EEE7__allocB7v160006Ev, symObjAddr: 0xA468, symBinAddr: 0x10000BF5C, symSize: 0x28 }
  - { offsetInCU: 0x194A0, offset: 0x194A0, size: 0x8, addend: 0x0, symName: __ZNKSt3__19allocatorINS_6vectorIiNS0_IiEEEEE8max_sizeB7v160006Ev, symObjAddr: 0xA490, symBinAddr: 0x10000BF84, symSize: 0x18 }
  - { offsetInCU: 0x194C6, offset: 0x194C6, size: 0x8, addend: 0x0, symName: __ZNKSt3__117__compressed_pairIPNS_6vectorIiNS_9allocatorIiEEEENS2_IS4_EEE6secondB7v160006Ev, symObjAddr: 0xA4A8, symBinAddr: 0x10000BF9C, symSize: 0x24 }
  - { offsetInCU: 0x194EC, offset: 0x194EC, size: 0x8, addend: 0x0, symName: __ZNKSt3__122__compressed_pair_elemINS_9allocatorINS_6vectorIiNS1_IiEEEEEELi1ELb1EE5__getB7v160006Ev, symObjAddr: 0xA4CC, symBinAddr: 0x10000BFC0, symSize: 0x14 }
  - { offsetInCU: 0x19512, offset: 0x19512, size: 0x8, addend: 0x0, symName: __ZNSt3__114__split_bufferINS_6vectorIiNS_9allocatorIiEEEERNS2_IS4_EEEC2EmmS6_, symObjAddr: 0xA4E0, symBinAddr: 0x10000BFD4, symSize: 0xE0 }
  - { offsetInCU: 0x19585, offset: 0x19585, size: 0x8, addend: 0x0, symName: __ZNSt3__117__compressed_pairIPNS_6vectorIiNS_9allocatorIiEEEERNS2_IS4_EEEC1B7v160006IDnS7_EEOT_OT0_, symObjAddr: 0xA5C0, symBinAddr: 0x10000C0B4, symSize: 0x3C }
  - { offsetInCU: 0x195DD, offset: 0x195DD, size: 0x8, addend: 0x0, symName: __ZNSt3__114__split_bufferINS_6vectorIiNS_9allocatorIiEEEERNS2_IS4_EEE7__allocB7v160006Ev, symObjAddr: 0xA63C, symBinAddr: 0x10000C130, symSize: 0x28 }
  - { offsetInCU: 0x19603, offset: 0x19603, size: 0x8, addend: 0x0, symName: __ZNSt3__114__split_bufferINS_6vectorIiNS_9allocatorIiEEEERNS2_IS4_EEE9__end_capB7v160006Ev, symObjAddr: 0xA664, symBinAddr: 0x10000C158, symSize: 0x28 }
  - { offsetInCU: 0x19629, offset: 0x19629, size: 0x8, addend: 0x0, symName: __ZNSt3__117__compressed_pairIPNS_6vectorIiNS_9allocatorIiEEEERNS2_IS4_EEEC2B7v160006IDnS7_EEOT_OT0_, symObjAddr: 0xA68C, symBinAddr: 0x10000C180, symSize: 0x48 }
  - { offsetInCU: 0x19681, offset: 0x19681, size: 0x8, addend: 0x0, symName: __ZNSt3__122__compressed_pair_elemIRNS_9allocatorINS_6vectorIiNS1_IiEEEEEELi1ELb0EEC2B7v160006IS6_vEEOT_, symObjAddr: 0xA6D4, symBinAddr: 0x10000C1C8, symSize: 0x20 }
  - { offsetInCU: 0x196C3, offset: 0x196C3, size: 0x8, addend: 0x0, symName: __ZNSt3__19allocatorINS_6vectorIiNS0_IiEEEEE8allocateB7v160006Em, symObjAddr: 0xA6F4, symBinAddr: 0x10000C1E8, symSize: 0x5C }
  - { offsetInCU: 0x196F7, offset: 0x196F7, size: 0x8, addend: 0x0, symName: __ZNSt3__117__compressed_pairIPNS_6vectorIiNS_9allocatorIiEEEERNS2_IS4_EEE6secondB7v160006Ev, symObjAddr: 0xA750, symBinAddr: 0x10000C244, symSize: 0x28 }
  - { offsetInCU: 0x1971D, offset: 0x1971D, size: 0x8, addend: 0x0, symName: __ZNSt3__122__compressed_pair_elemIRNS_9allocatorINS_6vectorIiNS1_IiEEEEEELi1ELb0EE5__getB7v160006Ev, symObjAddr: 0xA778, symBinAddr: 0x10000C26C, symSize: 0x18 }
  - { offsetInCU: 0x19743, offset: 0x19743, size: 0x8, addend: 0x0, symName: __ZNSt3__117__compressed_pairIPNS_6vectorIiNS_9allocatorIiEEEERNS2_IS4_EEE5firstB7v160006Ev, symObjAddr: 0xA790, symBinAddr: 0x10000C284, symSize: 0x24 }
  - { offsetInCU: 0x19769, offset: 0x19769, size: 0x8, addend: 0x0, symName: __ZNSt3__116reverse_iteratorIPNS_6vectorIiNS_9allocatorIiEEEEEC1B7v160006ES5_, symObjAddr: 0xA8E0, symBinAddr: 0x10000C3D4, symSize: 0x34 }
  - { offsetInCU: 0x197A1, offset: 0x197A1, size: 0x8, addend: 0x0, symName: __ZNKSt3__116reverse_iteratorIPNS_6vectorIiNS_9allocatorIiEEEEE4baseB7v160006Ev, symObjAddr: 0xA914, symBinAddr: 0x10000C408, symSize: 0x18 }
  - { offsetInCU: 0x197C7, offset: 0x197C7, size: 0x8, addend: 0x0, symName: __ZNKSt3__16vectorINS0_IiNS_9allocatorIiEEEENS1_IS3_EEE14__annotate_newB7v160006Em, symObjAddr: 0xA968, symBinAddr: 0x10000C45C, symSize: 0xC8 }
  - { offsetInCU: 0x197FC, offset: 0x197FC, size: 0x8, addend: 0x0, symName: __ZNSt3__129_AllocatorDestroyRangeReverseINS_9allocatorINS_6vectorIiNS1_IiEEEEEENS_16reverse_iteratorIPS4_EEEC1B7v160006ERS5_RS8_SB_, symObjAddr: 0xAA8C, symBinAddr: 0x10000C580, symSize: 0x44 }
  - { offsetInCU: 0x19853, offset: 0x19853, size: 0x8, addend: 0x0, symName: __ZNSt3__116allocator_traitsINS_9allocatorINS_6vectorIiNS1_IiEEEEEEE9constructB7v160006IS4_JS4_EvEEvRS5_PT_DpOT0_, symObjAddr: 0xAB18, symBinAddr: 0x10000C60C, symSize: 0x34 }
  - { offsetInCU: 0x198A9, offset: 0x198A9, size: 0x8, addend: 0x0, symName: __ZNKSt3__116reverse_iteratorIPNS_6vectorIiNS_9allocatorIiEEEEEdeB7v160006Ev, symObjAddr: 0xAB70, symBinAddr: 0x10000C664, symSize: 0x28 }
  - { offsetInCU: 0x198DD, offset: 0x198DD, size: 0x8, addend: 0x0, symName: __ZNSt3__116reverse_iteratorIPNS_6vectorIiNS_9allocatorIiEEEEEppB7v160006Ev, symObjAddr: 0xAB98, symBinAddr: 0x10000C68C, symSize: 0x20 }
  - { offsetInCU: 0x19903, offset: 0x19903, size: 0x8, addend: 0x0, symName: __ZNSt3__128__exception_guard_exceptionsINS_29_AllocatorDestroyRangeReverseINS_9allocatorINS_6vectorIiNS2_IiEEEEEENS_16reverse_iteratorIPS5_EEEEE10__completeB7v160006Ev, symObjAddr: 0xABB8, symBinAddr: 0x10000C6AC, symSize: 0x1C }
  - { offsetInCU: 0x19929, offset: 0x19929, size: 0x8, addend: 0x0, symName: __ZNSt3__128__exception_guard_exceptionsINS_29_AllocatorDestroyRangeReverseINS_9allocatorINS_6vectorIiNS2_IiEEEEEENS_16reverse_iteratorIPS5_EEEEED1B7v160006Ev, symObjAddr: 0xABD4, symBinAddr: 0x10000C6C8, symSize: 0x2C }
  - { offsetInCU: 0x19953, offset: 0x19953, size: 0x8, addend: 0x0, symName: __ZNSt3__128__exception_guard_exceptionsINS_29_AllocatorDestroyRangeReverseINS_9allocatorINS_6vectorIiNS2_IiEEEEEENS_16reverse_iteratorIPS5_EEEEEC1B7v160006ESA_, symObjAddr: 0xAC00, symBinAddr: 0x10000C6F4, symSize: 0x34 }
  - { offsetInCU: 0x1998C, offset: 0x1998C, size: 0x8, addend: 0x0, symName: __ZNSt3__128__exception_guard_exceptionsINS_29_AllocatorDestroyRangeReverseINS_9allocatorINS_6vectorIiNS2_IiEEEEEENS_16reverse_iteratorIPS5_EEEEEC2B7v160006ESA_, symObjAddr: 0xAC34, symBinAddr: 0x10000C728, symSize: 0x30 }
  - { offsetInCU: 0x199C5, offset: 0x199C5, size: 0x8, addend: 0x0, symName: __ZNSt3__129_AllocatorDestroyRangeReverseINS_9allocatorINS_6vectorIiNS1_IiEEEEEENS_16reverse_iteratorIPS4_EEEC2B7v160006ERS5_RS8_SB_, symObjAddr: 0xAC64, symBinAddr: 0x10000C758, symSize: 0x38 }
  - { offsetInCU: 0x19A1C, offset: 0x19A1C, size: 0x8, addend: 0x0, symName: __ZNSt3__19allocatorINS_6vectorIiNS0_IiEEEEE9constructB7v160006IS3_JS3_EEEvPT_DpOT0_, symObjAddr: 0xAC9C, symBinAddr: 0x10000C790, symSize: 0x30 }
  - { offsetInCU: 0x19A72, offset: 0x19A72, size: 0x8, addend: 0x0, symName: __ZNSt3__16vectorIiNS_9allocatorIiEEEC1B7v160006EOS3_, symObjAddr: 0xACCC, symBinAddr: 0x10000C7C0, symSize: 0x34 }
  - { offsetInCU: 0x19AAD, offset: 0x19AAD, size: 0x8, addend: 0x0, symName: __ZNSt3__16vectorIiNS_9allocatorIiEEEC2B7v160006EOS3_, symObjAddr: 0xAD00, symBinAddr: 0x10000C7F4, symSize: 0xDC }
  - { offsetInCU: 0x19AED, offset: 0x19AED, size: 0x8, addend: 0x0, symName: __ZNSt3__119__to_address_helperINS_16reverse_iteratorIPNS_6vectorIiNS_9allocatorIiEEEEEEvE6__callB7v160006ERKS7_, symObjAddr: 0xADF0, symBinAddr: 0x10000C8E4, symSize: 0x38 }
  - { offsetInCU: 0x19B0F, offset: 0x19B0F, size: 0x8, addend: 0x0, symName: __ZNKSt3__116reverse_iteratorIPNS_6vectorIiNS_9allocatorIiEEEEEptB7v160006Ev, symObjAddr: 0xAE28, symBinAddr: 0x10000C91C, symSize: 0x24 }
  - { offsetInCU: 0x19B35, offset: 0x19B35, size: 0x8, addend: 0x0, symName: __ZNSt3__128__exception_guard_exceptionsINS_29_AllocatorDestroyRangeReverseINS_9allocatorINS_6vectorIiNS2_IiEEEEEENS_16reverse_iteratorIPS5_EEEEED2B7v160006Ev, symObjAddr: 0xAE4C, symBinAddr: 0x10000C940, symSize: 0x50 }
  - { offsetInCU: 0x19B5F, offset: 0x19B5F, size: 0x8, addend: 0x0, symName: __ZNKSt3__129_AllocatorDestroyRangeReverseINS_9allocatorINS_6vectorIiNS1_IiEEEEEENS_16reverse_iteratorIPS4_EEEclB7v160006Ev, symObjAddr: 0xAE9C, symBinAddr: 0x10000C990, symSize: 0xB4 }
  - { offsetInCU: 0x19B86, offset: 0x19B86, size: 0x8, addend: 0x0, symName: __ZNSt3__116reverse_iteratorINS0_IPNS_6vectorIiNS_9allocatorIiEEEEEEEC1B7v160006ES6_, symObjAddr: 0xAFC0, symBinAddr: 0x10000CAB4, symSize: 0x3C }
  - { offsetInCU: 0x19BBE, offset: 0x19BBE, size: 0x8, addend: 0x0, symName: __ZNSt3__116reverse_iteratorINS0_IPNS_6vectorIiNS_9allocatorIiEEEEEEEppB7v160006Ev, symObjAddr: 0xB080, symBinAddr: 0x10000CB74, symSize: 0x30 }
  - { offsetInCU: 0x19BE4, offset: 0x19BE4, size: 0x8, addend: 0x0, symName: __ZNKSt3__116reverse_iteratorINS0_IPNS_6vectorIiNS_9allocatorIiEEEEEEE4baseB7v160006Ev, symObjAddr: 0xB0B0, symBinAddr: 0x10000CBA4, symSize: 0x24 }
  - { offsetInCU: 0x19C0F, offset: 0x19C0F, size: 0x8, addend: 0x0, symName: __ZNSt3__119__to_address_helperINS_16reverse_iteratorINS1_IPNS_6vectorIiNS_9allocatorIiEEEEEEEEvE6__callB7v160006ERKS8_, symObjAddr: 0xB0D4, symBinAddr: 0x10000CBC8, symSize: 0x38 }
  - { offsetInCU: 0x19C31, offset: 0x19C31, size: 0x8, addend: 0x0, symName: __ZNKSt3__116reverse_iteratorINS0_IPNS_6vectorIiNS_9allocatorIiEEEEEEEptB7v160006Ev, symObjAddr: 0xB10C, symBinAddr: 0x10000CC00, symSize: 0x24 }
  - { offsetInCU: 0x19C57, offset: 0x19C57, size: 0x8, addend: 0x0, symName: __ZNKSt3__116reverse_iteratorINS0_IPNS_6vectorIiNS_9allocatorIiEEEEEEEdeB7v160006Ev, symObjAddr: 0xB130, symBinAddr: 0x10000CC24, symSize: 0x34 }
  - { offsetInCU: 0x19C8B, offset: 0x19C8B, size: 0x8, addend: 0x0, symName: __ZNSt3__116reverse_iteratorIPNS_6vectorIiNS_9allocatorIiEEEEEmmB7v160006Ev, symObjAddr: 0xB164, symBinAddr: 0x10000CC58, symSize: 0x20 }
  - { offsetInCU: 0x19CB1, offset: 0x19CB1, size: 0x8, addend: 0x0, symName: __ZNSt3__116reverse_iteratorINS0_IPNS_6vectorIiNS_9allocatorIiEEEEEEEC2B7v160006ES6_, symObjAddr: 0xB184, symBinAddr: 0x10000CC78, symSize: 0x2C }
  - { offsetInCU: 0x19CE9, offset: 0x19CE9, size: 0x8, addend: 0x0, symName: __ZNSt3__116reverse_iteratorIPNS_6vectorIiNS_9allocatorIiEEEEEC2B7v160006ES5_, symObjAddr: 0xB1B0, symBinAddr: 0x10000CCA4, symSize: 0x28 }
  - { offsetInCU: 0x19D21, offset: 0x19D21, size: 0x8, addend: 0x0, symName: __ZNSt3__114__split_bufferINS_6vectorIiNS_9allocatorIiEEEERNS2_IS4_EEED2Ev, symObjAddr: 0xB1D8, symBinAddr: 0x10000CCCC, symSize: 0x8C }
  - { offsetInCU: 0x19D4D, offset: 0x19D4D, size: 0x8, addend: 0x0, symName: __ZNSt3__114__split_bufferINS_6vectorIiNS_9allocatorIiEEEERNS2_IS4_EEE5clearB7v160006Ev, symObjAddr: 0xB264, symBinAddr: 0x10000CD58, symSize: 0x28 }
  - { offsetInCU: 0x19D73, offset: 0x19D73, size: 0x8, addend: 0x0, symName: __ZNKSt3__114__split_bufferINS_6vectorIiNS_9allocatorIiEEEERNS2_IS4_EEE8capacityB7v160006Ev, symObjAddr: 0xB28C, symBinAddr: 0x10000CD80, symSize: 0x40 }
  - { offsetInCU: 0x19D99, offset: 0x19D99, size: 0x8, addend: 0x0, symName: __ZNSt3__114__split_bufferINS_6vectorIiNS_9allocatorIiEEEERNS2_IS4_EEE17__destruct_at_endB7v160006EPS4_, symObjAddr: 0xB2CC, symBinAddr: 0x10000CDC0, symSize: 0x2C }
  - { offsetInCU: 0x19DCD, offset: 0x19DCD, size: 0x8, addend: 0x0, symName: __ZNSt3__114__split_bufferINS_6vectorIiNS_9allocatorIiEEEERNS2_IS4_EEE17__destruct_at_endB7v160006EPS4_NS_17integral_constantIbLb0EEE, symObjAddr: 0xB2F8, symBinAddr: 0x10000CDEC, symSize: 0x80 }
  - { offsetInCU: 0x19E0E, offset: 0x19E0E, size: 0x8, addend: 0x0, symName: __ZNKSt3__114__split_bufferINS_6vectorIiNS_9allocatorIiEEEERNS2_IS4_EEE9__end_capB7v160006Ev, symObjAddr: 0xB378, symBinAddr: 0x10000CE6C, symSize: 0x28 }
  - { offsetInCU: 0x19E34, offset: 0x19E34, size: 0x8, addend: 0x0, symName: __ZNKSt3__117__compressed_pairIPNS_6vectorIiNS_9allocatorIiEEEERNS2_IS4_EEE5firstB7v160006Ev, symObjAddr: 0xB3A0, symBinAddr: 0x10000CE94, symSize: 0x24 }
  - { offsetInCU: 0x19E5A, offset: 0x19E5A, size: 0x8, addend: 0x0, symName: __ZNSt3__16vectorINS0_IiNS_9allocatorIiEEEENS1_IS3_EEEC2ERKS5_, symObjAddr: 0xB3C4, symBinAddr: 0x10000CEB8, symSize: 0x110 }
  - { offsetInCU: 0x19EB9, offset: 0x19EB9, size: 0x8, addend: 0x0, symName: __ZNSt3__116allocator_traitsINS_9allocatorINS_6vectorIiNS1_IiEEEEEEE37select_on_container_copy_constructionB7v160006IS5_vvEES5_RKS5_, symObjAddr: 0xB4D4, symBinAddr: 0x10000CFC8, symSize: 0x10 }
  - { offsetInCU: 0x19EED, offset: 0x19EED, size: 0x8, addend: 0x0, symName: __ZNSt3__117__compressed_pairIPNS_6vectorIiNS_9allocatorIiEEEENS2_IS4_EEEC1B7v160006IDnS6_EEOT_OT0_, symObjAddr: 0xB4E4, symBinAddr: 0x10000CFD8, symSize: 0x3C }
  - { offsetInCU: 0x19F45, offset: 0x19F45, size: 0x8, addend: 0x0, symName: __ZNSt3__16vectorINS0_IiNS_9allocatorIiEEEENS1_IS3_EEE11__vallocateB7v160006Em, symObjAddr: 0xB560, symBinAddr: 0x10000D054, symSize: 0xB4 }
  - { offsetInCU: 0x19F89, offset: 0x19F89, size: 0x8, addend: 0x0, symName: __ZNSt3__16vectorINS0_IiNS_9allocatorIiEEEENS1_IS3_EEE18__construct_at_endIPS3_Li0EEEvT_S8_m, symObjAddr: 0xB614, symBinAddr: 0x10000D108, symSize: 0x8C }
  - { offsetInCU: 0x19FFC, offset: 0x19FFC, size: 0x8, addend: 0x0, symName: __ZNSt3__128__exception_guard_exceptionsINS_6vectorINS1_IiNS_9allocatorIiEEEENS2_IS4_EEE16__destroy_vectorEE10__completeB7v160006Ev, symObjAddr: 0xB6A0, symBinAddr: 0x10000D194, symSize: 0x1C }
  - { offsetInCU: 0x1A022, offset: 0x1A022, size: 0x8, addend: 0x0, symName: __ZNSt3__128__exception_guard_exceptionsINS_6vectorINS1_IiNS_9allocatorIiEEEENS2_IS4_EEE16__destroy_vectorEED1B7v160006Ev, symObjAddr: 0xB6BC, symBinAddr: 0x10000D1B0, symSize: 0x2C }
  - { offsetInCU: 0x1A04C, offset: 0x1A04C, size: 0x8, addend: 0x0, symName: __ZNSt3__117__compressed_pairIPNS_6vectorIiNS_9allocatorIiEEEENS2_IS4_EEEC2B7v160006IDnS6_EEOT_OT0_, symObjAddr: 0xB6E8, symBinAddr: 0x10000D1DC, symSize: 0x44 }
  - { offsetInCU: 0x1A0A4, offset: 0x1A0A4, size: 0x8, addend: 0x0, symName: __ZNSt3__122__compressed_pair_elemINS_9allocatorINS_6vectorIiNS1_IiEEEEEELi1ELb1EEC2B7v160006IS5_vEEOT_, symObjAddr: 0xB72C, symBinAddr: 0x10000D220, symSize: 0x18 }
  - { offsetInCU: 0x1A0E6, offset: 0x1A0E6, size: 0x8, addend: 0x0, symName: __ZNSt3__128__exception_guard_exceptionsINS_6vectorINS1_IiNS_9allocatorIiEEEENS2_IS4_EEE16__destroy_vectorEEC1B7v160006ES7_, symObjAddr: 0xB744, symBinAddr: 0x10000D238, symSize: 0x34 }
  - { offsetInCU: 0x1A11E, offset: 0x1A11E, size: 0x8, addend: 0x0, symName: __ZNSt3__128__exception_guard_exceptionsINS_6vectorINS1_IiNS_9allocatorIiEEEENS2_IS4_EEE16__destroy_vectorEEC2B7v160006ES7_, symObjAddr: 0xB778, symBinAddr: 0x10000D26C, symSize: 0x24 }
  - { offsetInCU: 0x1A156, offset: 0x1A156, size: 0x8, addend: 0x0, symName: __ZNSt3__129_AllocatorDestroyRangeReverseINS_9allocatorINS_6vectorIiNS1_IiEEEEEEPS4_EC1B7v160006ERS5_RS6_S9_, symObjAddr: 0xB8DC, symBinAddr: 0x10000D3D0, symSize: 0x44 }
  - { offsetInCU: 0x1A1AD, offset: 0x1A1AD, size: 0x8, addend: 0x0, symName: __ZNSt3__116allocator_traitsINS_9allocatorINS_6vectorIiNS1_IiEEEEEEE9constructB7v160006IS4_JRS4_EvEEvRS5_PT_DpOT0_, symObjAddr: 0xB920, symBinAddr: 0x10000D414, symSize: 0x34 }
  - { offsetInCU: 0x1A203, offset: 0x1A203, size: 0x8, addend: 0x0, symName: __ZNSt3__128__exception_guard_exceptionsINS_29_AllocatorDestroyRangeReverseINS_9allocatorINS_6vectorIiNS2_IiEEEEEEPS5_EEE10__completeB7v160006Ev, symObjAddr: 0xB954, symBinAddr: 0x10000D448, symSize: 0x1C }
  - { offsetInCU: 0x1A229, offset: 0x1A229, size: 0x8, addend: 0x0, symName: __ZNSt3__128__exception_guard_exceptionsINS_29_AllocatorDestroyRangeReverseINS_9allocatorINS_6vectorIiNS2_IiEEEEEEPS5_EEED1B7v160006Ev, symObjAddr: 0xB970, symBinAddr: 0x10000D464, symSize: 0x2C }
  - { offsetInCU: 0x1A253, offset: 0x1A253, size: 0x8, addend: 0x0, symName: __ZNSt3__128__exception_guard_exceptionsINS_29_AllocatorDestroyRangeReverseINS_9allocatorINS_6vectorIiNS2_IiEEEEEEPS5_EEEC1B7v160006ES8_, symObjAddr: 0xB99C, symBinAddr: 0x10000D490, symSize: 0x34 }
  - { offsetInCU: 0x1A28C, offset: 0x1A28C, size: 0x8, addend: 0x0, symName: __ZNSt3__128__exception_guard_exceptionsINS_29_AllocatorDestroyRangeReverseINS_9allocatorINS_6vectorIiNS2_IiEEEEEEPS5_EEEC2B7v160006ES8_, symObjAddr: 0xB9D0, symBinAddr: 0x10000D4C4, symSize: 0x30 }
  - { offsetInCU: 0x1A2C5, offset: 0x1A2C5, size: 0x8, addend: 0x0, symName: __ZNSt3__129_AllocatorDestroyRangeReverseINS_9allocatorINS_6vectorIiNS1_IiEEEEEEPS4_EC2B7v160006ERS5_RS6_S9_, symObjAddr: 0xBA00, symBinAddr: 0x10000D4F4, symSize: 0x38 }
  - { offsetInCU: 0x1A31C, offset: 0x1A31C, size: 0x8, addend: 0x0, symName: __ZNSt3__19allocatorINS_6vectorIiNS0_IiEEEEE9constructB7v160006IS3_JRS3_EEEvPT_DpOT0_, symObjAddr: 0xBA38, symBinAddr: 0x10000D52C, symSize: 0x30 }
  - { offsetInCU: 0x1A372, offset: 0x1A372, size: 0x8, addend: 0x0, symName: __ZNSt3__128__exception_guard_exceptionsINS_29_AllocatorDestroyRangeReverseINS_9allocatorINS_6vectorIiNS2_IiEEEEEEPS5_EEED2B7v160006Ev, symObjAddr: 0xBA68, symBinAddr: 0x10000D55C, symSize: 0x50 }
  - { offsetInCU: 0x1A39C, offset: 0x1A39C, size: 0x8, addend: 0x0, symName: __ZNKSt3__129_AllocatorDestroyRangeReverseINS_9allocatorINS_6vectorIiNS1_IiEEEEEEPS4_EclB7v160006Ev, symObjAddr: 0xBAB8, symBinAddr: 0x10000D5AC, symSize: 0x68 }
  - { offsetInCU: 0x1A3C2, offset: 0x1A3C2, size: 0x8, addend: 0x0, symName: __ZNSt3__128__exception_guard_exceptionsINS_6vectorINS1_IiNS_9allocatorIiEEEENS2_IS4_EEE16__destroy_vectorEED2B7v160006Ev, symObjAddr: 0xBB90, symBinAddr: 0x10000D684, symSize: 0x50 }
  - { offsetInCU: 0x1A3EC, offset: 0x1A3EC, size: 0x8, addend: 0x0, symName: __ZNSt3__16vectorIdNS_9allocatorIdEEE22__construct_one_at_endB7v160006IJRKdEEEvDpOT_, symObjAddr: 0xBBE0, symBinAddr: 0x10000D6D4, symSize: 0x90 }
  - { offsetInCU: 0x1A43B, offset: 0x1A43B, size: 0x8, addend: 0x0, symName: __ZNSt3__16vectorIdNS_9allocatorIdEEE21__push_back_slow_pathIRKdEEvOT_, symObjAddr: 0xBC70, symBinAddr: 0x10000D764, symSize: 0xD8 }
  - { offsetInCU: 0x1A499, offset: 0x1A499, size: 0x8, addend: 0x0, symName: __ZNSt3__116allocator_traitsINS_9allocatorIdEEE9constructB7v160006IdJRKdEvEEvRS2_PT_DpOT0_, symObjAddr: 0xBD48, symBinAddr: 0x10000D83C, symSize: 0x34 }
  - { offsetInCU: 0x1A4EF, offset: 0x1A4EF, size: 0x8, addend: 0x0, symName: __ZNSt3__19allocatorIdE9constructB7v160006IdJRKdEEEvPT_DpOT0_, symObjAddr: 0xBD7C, symBinAddr: 0x10000D870, symSize: 0x28 }
  - { offsetInCU: 0x1A545, offset: 0x1A545, size: 0x8, addend: 0x0, symName: __ZNKSt3__120__map_const_iteratorINS_21__tree_const_iteratorINS_12__value_typeINS_12basic_stringIcNS_11char_traitsIcEENS_9allocatorIcEEEES8_EEPNS_11__tree_nodeIS9_PvEElEEEdeB7v160006Ev, symObjAddr: 0xC144, symBinAddr: 0x10000DC38, symSize: 0x28 }
  - { offsetInCU: 0x1A56B, offset: 0x1A56B, size: 0x8, addend: 0x0, symName: __ZNSt3__16vectorIdNS_9allocatorIdEEEC1Em, symObjAddr: 0xC16C, symBinAddr: 0x10000DC60, symSize: 0x34 }
  - { offsetInCU: 0x1A5A6, offset: 0x1A5A6, size: 0x8, addend: 0x0, symName: __ZNSt3__16vectorIdNS_9allocatorIdEEE5beginB7v160006Ev, symObjAddr: 0xC1F0, symBinAddr: 0x10000DCE4, symSize: 0x30 }
  - { offsetInCU: 0x1A5CE, offset: 0x1A5CE, size: 0x8, addend: 0x0, symName: __ZNSt3__16vectorIdNS_9allocatorIdEEE4dataB7v160006Ev, symObjAddr: 0xC220, symBinAddr: 0x10000DD14, symSize: 0x28 }
  - { offsetInCU: 0x1A5F4, offset: 0x1A5F4, size: 0x8, addend: 0x0, symName: __ZNSt3__16vectorIdNS_9allocatorIdEEEC2Em, symObjAddr: 0xC248, symBinAddr: 0x10000DD3C, symSize: 0xDC }
  - { offsetInCU: 0x1A644, offset: 0x1A644, size: 0x8, addend: 0x0, symName: __ZNSt3__16vectorIdNS_9allocatorIdEEE18__construct_at_endEm, symObjAddr: 0xC324, symBinAddr: 0x10000DE18, symSize: 0xC8 }
  - { offsetInCU: 0x1A6B6, offset: 0x1A6B6, size: 0x8, addend: 0x0, symName: __ZNSt3__116allocator_traitsINS_9allocatorIdEEE9constructB7v160006IdJEvEEvRS2_PT_DpOT0_, symObjAddr: 0xC3EC, symBinAddr: 0x10000DEE0, symSize: 0x2C }
  - { offsetInCU: 0x1A6F7, offset: 0x1A6F7, size: 0x8, addend: 0x0, symName: __ZNSt3__19allocatorIdE9constructB7v160006IdJEEEvPT_DpOT0_, symObjAddr: 0xC418, symBinAddr: 0x10000DF0C, symSize: 0x20 }
  - { offsetInCU: 0x1A739, offset: 0x1A739, size: 0x8, addend: 0x0, symName: __ZNSt3__118__unwrap_iter_implINS_11__wrap_iterIPdEELb1EE8__unwrapB7v160006ES3_, symObjAddr: 0xC644, symBinAddr: 0x10000E138, symSize: 0x28 }
  - { offsetInCU: 0x1A765, offset: 0x1A765, size: 0x8, addend: 0x0, symName: __ZNSt3__119__to_address_helperINS_11__wrap_iterIPdEEvE6__callB7v160006ERKS3_, symObjAddr: 0xC690, symBinAddr: 0x10000E184, symSize: 0x30 }
  - { offsetInCU: 0x1A787, offset: 0x1A787, size: 0x8, addend: 0x0, symName: __ZNSt3__114pointer_traitsINS_11__wrap_iterIPdEEE10to_addressB7v160006ES3_, symObjAddr: 0xC6C0, symBinAddr: 0x10000E1B4, symSize: 0x2C }
  - { offsetInCU: 0x1A7AA, offset: 0x1A7AA, size: 0x8, addend: 0x0, symName: __ZNKSt3__111__wrap_iterIPdE4baseB7v160006Ev, symObjAddr: 0xC6EC, symBinAddr: 0x10000E1E0, symSize: 0x18 }
  - { offsetInCU: 0x1A7EE, offset: 0x1A7EE, size: 0x8, addend: 0x0, symName: __ZNSt3__14pairIPKdNS_11__wrap_iterIPdEEEC1B7v160006IS2_S5_LPv0EEEOT_OT0_, symObjAddr: 0xC704, symBinAddr: 0x10000E1F8, symSize: 0x3C }
  - { offsetInCU: 0x1A84C, offset: 0x1A84C, size: 0x8, addend: 0x0, symName: __ZNSt3__14pairIPKdNS_11__wrap_iterIPdEEEC2B7v160006IS2_S5_LPv0EEEOT_OT0_, symObjAddr: 0xC740, symBinAddr: 0x10000E234, symSize: 0x34 }
  - { offsetInCU: 0x1A8AA, offset: 0x1A8AA, size: 0x8, addend: 0x0, symName: __ZNSt3__118__unwrap_iter_implINS_11__wrap_iterIPdEELb1EE8__rewrapB7v160006ES3_S2_, symObjAddr: 0xC774, symBinAddr: 0x10000E268, symSize: 0x5C }
  - { offsetInCU: 0x1A8DA, offset: 0x1A8DA, size: 0x8, addend: 0x0, symName: __ZNKSt3__111__wrap_iterIPdEplB7v160006El, symObjAddr: 0xC7D0, symBinAddr: 0x10000E2C4, symSize: 0x3C }
  - { offsetInCU: 0x1A91C, offset: 0x1A91C, size: 0x8, addend: 0x0, symName: __ZNSt3__111__wrap_iterIPdEpLB7v160006El, symObjAddr: 0xC80C, symBinAddr: 0x10000E300, symSize: 0x28 }
  - { offsetInCU: 0x1A950, offset: 0x1A950, size: 0x8, addend: 0x0, symName: __ZNSt3__16vectorIdNS_9allocatorIdEEE11__make_iterB7v160006EPd, symObjAddr: 0xC834, symBinAddr: 0x10000E328, symSize: 0x34 }
  - { offsetInCU: 0x1A985, offset: 0x1A985, size: 0x8, addend: 0x0, symName: __ZNSt3__111__wrap_iterIPdEC1B7v160006EPKvS1_, symObjAddr: 0xC868, symBinAddr: 0x10000E35C, symSize: 0x3C }
  - { offsetInCU: 0x1A9CB, offset: 0x1A9CB, size: 0x8, addend: 0x0, symName: __ZNSt3__111__wrap_iterIPdEC2B7v160006EPKvS1_, symObjAddr: 0xC8A4, symBinAddr: 0x10000E398, symSize: 0x24 }
...
